Archive member included because of file (symbol)

D:/xuser00/Ansoft/XSFK_KL25Z/XSFK_KL25Z/Library\libFusion.a(baranski_kalman.o)
                              ./Sources/tasks_func.o (fInit_1DOF_P_BASIC)
D:/xuser00/Ansoft/XSFK_KL25Z/XSFK_KL25Z/Library\libFusion.a(matrix.o)
                              D:/xuser00/Ansoft/XSFK_KL25Z/XSFK_KL25Z/Library\libFusion.a(baranski_kalman.o) (f3x3matrixAeqI)
D:/xuser00/Ansoft/XSFK_KL25Z/XSFK_KL25Z/Library\libFusion.a(magnetic.o)
                              ./Sources/tasks_func.o (fInitMagCalibration)
D:/xuser00/Ansoft/XSFK_KL25Z/XSFK_KL25Z/Library\libFusion.a(approximations.o)
                              D:/xuser00/Ansoft/XSFK_KL25Z/XSFK_KL25Z/Library\libFusion.a(baranski_kalman.o) (fasin_deg)
D:/xuser00/Ansoft/XSFK_KL25Z/XSFK_KL25Z/Library\libFusion.a(orientation.o)
                              D:/xuser00/Ansoft/XSFK_KL25Z/XSFK_KL25Z/Library\libFusion.a(baranski_kalman.o) (f3DOFTiltNED)
C:/Appz/Freescale/CW MCU v10.6/MCU/ARM_GCC_Support/ewl/lib/armv6-m\libc.a(sprintf.o)
                              ./Sources/user_tasks.o (sprintf)
C:/Appz/Freescale/CW MCU v10.6/MCU/ARM_GCC_Support/ewl/lib/armv6-m\libc.a(vsnprintf.o)
                              C:/Appz/Freescale/CW MCU v10.6/MCU/ARM_GCC_Support/ewl/lib/armv6-m\libc.a(sprintf.o) (vsnprintf)
C:/Appz/Freescale/CW MCU v10.6/MCU/ARM_GCC_Support/ewl/lib/armv6-m\libc.a(exit.o)
                              ./Project_Settings/Startup_Code/__arm_start.o (exit)
C:/Appz/Freescale/CW MCU v10.6/MCU/ARM_GCC_Support/ewl/lib/armv6-m\libc.a(memcpy.o)
                              C:/Appz/Freescale/CW MCU v10.6/MCU/ARM_GCC_Support/ewl/lib/armv6-m\libc.a(vsnprintf.o) (memcpy)
C:/Appz/Freescale/CW MCU v10.6/MCU/ARM_GCC_Support/ewl/lib/armv6-m\libc.a(memset.o)
                              ./Project_Settings/Startup_Code/__arm_start.o (memset)
C:/Appz/Freescale/CW MCU v10.6/MCU/ARM_GCC_Support/ewl/lib/armv6-m\libc.a(strncmp.o)
                              ./MQXLITE/kernel/task.o (strncmp)
C:/Appz/Freescale/CW MCU v10.6/MCU/ARM_GCC_Support/ewl/lib/armv6-m\libc.a(printformat_fp.o)
                              (__pformatterFP)
C:/Appz/Freescale/CW MCU v10.6/MCU/ARM_GCC_Support/ewl/lib/armv6-m\libc.a(scanformat_fp.o)
                              (__sformatter_FP)
C:/Appz/Freescale/CW MCU v10.6/MCU/ARM_GCC_Support/ewl/lib/armv6-m\libc.a(ctype_aeabi.o)
                              C:/Appz/Freescale/CW MCU v10.6/MCU/ARM_GCC_Support/ewl/lib/armv6-m\libc.a(scanformat_fp.o) (isspace)
C:/Appz/Freescale/CW MCU v10.6/MCU/ARM_GCC_Support/ewl/lib/armv6-m\libc.a(__strtold.o)
                              C:/Appz/Freescale/CW MCU v10.6/MCU/ARM_GCC_Support/ewl/lib/armv6-m\libc.a(scanformat_fp.o) (__strtold)
C:/Appz/Freescale/CW MCU v10.6/MCU/ARM_GCC_Support/ewl/lib/armv6-m\libc.a(vsscanf.o)
                              C:/Appz/Freescale/CW MCU v10.6/MCU/ARM_GCC_Support/ewl/lib/armv6-m\libc.a(__strtold.o) (__StringRead)
C:/Appz/Freescale/CW MCU v10.6/MCU/ARM_GCC_Support/ewl/lib/armv6-m\libc.a(__strtoul.o)
                              C:/Appz/Freescale/CW MCU v10.6/MCU/ARM_GCC_Support/ewl/lib/armv6-m\libc.a(scanformat_fp.o) (__strtoul)
C:/Appz/Freescale/CW MCU v10.6/MCU/ARM_GCC_Support/ewl/lib/armv6-m\libc.a(__filll_mem.o)
                              C:/Appz/Freescale/CW MCU v10.6/MCU/ARM_GCC_Support/ewl/lib/armv6-m\libc.a(memset.o) (__fill_mem)
C:/Appz/Freescale/CW MCU v10.6/MCU/ARM_GCC_Support/ewl/lib/armv6-m\libc.a(memchr.o)
                              C:/Appz/Freescale/CW MCU v10.6/MCU/ARM_GCC_Support/ewl/lib/armv6-m\libc.a(printformat_fp.o) (memchr)
C:/Appz/Freescale/CW MCU v10.6/MCU/ARM_GCC_Support/ewl/lib/armv6-m\libc.a(strchr.o)
                              C:/Appz/Freescale/CW MCU v10.6/MCU/ARM_GCC_Support/ewl/lib/armv6-m\libc.a(printformat_fp.o) (strchr)
C:/Appz/Freescale/CW MCU v10.6/MCU/ARM_GCC_Support/ewl/lib/armv6-m\libc.a(strcpy.o)
                              C:/Appz/Freescale/CW MCU v10.6/MCU/ARM_GCC_Support/ewl/lib/armv6-m\libc.a(printformat_fp.o) (strcpy)
C:/Appz/Freescale/CW MCU v10.6/MCU/ARM_GCC_Support/ewl/lib/armv6-m\libc.a(strlen.o)
                              C:/Appz/Freescale/CW MCU v10.6/MCU/ARM_GCC_Support/ewl/lib/armv6-m\libc.a(printformat_fp.o) (strlen)
C:/Appz/Freescale/CW MCU v10.6/MCU/ARM_GCC_Support/ewl/lib/armv6-m\libc.a(errno.o)
                              C:/Appz/Freescale/CW MCU v10.6/MCU/ARM_GCC_Support/ewl/lib/armv6-m\libc.a(__strtold.o) (errno)
C:/Appz/Freescale/CW MCU v10.6/MCU/ARM_GCC_Support/ewl/lib/armv6-m\libm.a(ansi_fp.o)
                              C:/Appz/Freescale/CW MCU v10.6/MCU/ARM_GCC_Support/ewl/lib/armv6-m\libc.a(printformat_fp.o) (__num2dec)
C:/Appz/Freescale/CW MCU v10.6/MCU/ARM_GCC_Support/ewl/lib/armv6-m\libm.a(float.o)
                              C:/Appz/Freescale/CW MCU v10.6/MCU/ARM_GCC_Support/ewl/lib/armv6-m\libc.a(__strtold.o) (__extended_max)
C:/Appz/Freescale/CW MCU v10.6/MCU/ARM_GCC_Support/ewl/lib/armv6-m\libm.a(math_api.o)
                              C:/Appz/Freescale/CW MCU v10.6/MCU/ARM_GCC_Support/ewl/lib/armv6-m\libm.a(ansi_fp.o) (__signbitd)
C:/Appz/Freescale/CW MCU v10.6/MCU/ARM_GCC_Support/ewl/lib/armv6-m\libm.a(s_cosf.o)
                              D:/xuser00/Ansoft/XSFK_KL25Z/XSFK_KL25Z/Library\libFusion.a(orientation.o) (cosf)
C:/Appz/Freescale/CW MCU v10.6/MCU/ARM_GCC_Support/ewl/lib/armv6-m\libm.a(s_frexp.o)
                              C:/Appz/Freescale/CW MCU v10.6/MCU/ARM_GCC_Support/ewl/lib/armv6-m\libm.a(ansi_fp.o) (frexp)
C:/Appz/Freescale/CW MCU v10.6/MCU/ARM_GCC_Support/ewl/lib/armv6-m\libm.a(s_sinf.o)
                              D:/xuser00/Ansoft/XSFK_KL25Z/XSFK_KL25Z/Library\libFusion.a(orientation.o) (sinf)
C:/Appz/Freescale/CW MCU v10.6/MCU/ARM_GCC_Support/ewl/lib/armv6-m\libm.a(w_acosf.o)
                              D:/xuser00/Ansoft/XSFK_KL25Z/XSFK_KL25Z/Library\libFusion.a(orientation.o) (acosf)
C:/Appz/Freescale/CW MCU v10.6/MCU/ARM_GCC_Support/ewl/lib/armv6-m\libm.a(w_pow.o)
                              C:/Appz/Freescale/CW MCU v10.6/MCU/ARM_GCC_Support/ewl/lib/armv6-m\libm.a(ansi_fp.o) (pow)
C:/Appz/Freescale/CW MCU v10.6/MCU/ARM_GCC_Support/ewl/lib/armv6-m\libm.a(w_powf.o)
                              D:/xuser00/Ansoft/XSFK_KL25Z/XSFK_KL25Z/Library\libFusion.a(magnetic.o) (powf)
C:/Appz/Freescale/CW MCU v10.6/MCU/ARM_GCC_Support/ewl/lib/armv6-m\libm.a(w_sqrtf.o)
                              D:/xuser00/Ansoft/XSFK_KL25Z/XSFK_KL25Z/Library\libFusion.a(baranski_kalman.o) (sqrtf)
C:/Appz/Freescale/CW MCU v10.6/MCU/ARM_GCC_Support/ewl/lib/armv6-m\libm.a(e_acosf.o)
                              C:/Appz/Freescale/CW MCU v10.6/MCU/ARM_GCC_Support/ewl/lib/armv6-m\libm.a(w_acosf.o) (__ieee754_acosf)
C:/Appz/Freescale/CW MCU v10.6/MCU/ARM_GCC_Support/ewl/lib/armv6-m\libm.a(e_pow.o)
                              C:/Appz/Freescale/CW MCU v10.6/MCU/ARM_GCC_Support/ewl/lib/armv6-m\libm.a(w_pow.o) (__ieee754_pow)
C:/Appz/Freescale/CW MCU v10.6/MCU/ARM_GCC_Support/ewl/lib/armv6-m\libm.a(e_powf.o)
                              C:/Appz/Freescale/CW MCU v10.6/MCU/ARM_GCC_Support/ewl/lib/armv6-m\libm.a(w_powf.o) (__ieee754_powf)
C:/Appz/Freescale/CW MCU v10.6/MCU/ARM_GCC_Support/ewl/lib/armv6-m\libm.a(e_rem_pio2f.o)
                              C:/Appz/Freescale/CW MCU v10.6/MCU/ARM_GCC_Support/ewl/lib/armv6-m\libm.a(s_cosf.o) (__ieee754_rem_pio2f)
C:/Appz/Freescale/CW MCU v10.6/MCU/ARM_GCC_Support/ewl/lib/armv6-m\libm.a(e_sqrtf.o)
                              C:/Appz/Freescale/CW MCU v10.6/MCU/ARM_GCC_Support/ewl/lib/armv6-m\libm.a(w_sqrtf.o) (__ieee754_sqrtf)
C:/Appz/Freescale/CW MCU v10.6/MCU/ARM_GCC_Support/ewl/lib/armv6-m\libm.a(k_cosf.o)
                              C:/Appz/Freescale/CW MCU v10.6/MCU/ARM_GCC_Support/ewl/lib/armv6-m\libm.a(s_cosf.o) (__kernel_cosf)
C:/Appz/Freescale/CW MCU v10.6/MCU/ARM_GCC_Support/ewl/lib/armv6-m\libm.a(k_rem_pio2f.o)
                              C:/Appz/Freescale/CW MCU v10.6/MCU/ARM_GCC_Support/ewl/lib/armv6-m\libm.a(e_rem_pio2f.o) (__kernel_rem_pio2f)
C:/Appz/Freescale/CW MCU v10.6/MCU/ARM_GCC_Support/ewl/lib/armv6-m\libm.a(k_sinf.o)
                              C:/Appz/Freescale/CW MCU v10.6/MCU/ARM_GCC_Support/ewl/lib/armv6-m\libm.a(s_cosf.o) (__kernel_sinf)
C:/Appz/Freescale/CW MCU v10.6/MCU/ARM_GCC_Support/ewl/lib/armv6-m\libm.a(s_floorf.o)
                              C:/Appz/Freescale/CW MCU v10.6/MCU/ARM_GCC_Support/ewl/lib/armv6-m\libm.a(k_rem_pio2f.o) (floorf)
C:/Appz/Freescale/CW MCU v10.6/MCU/ARM_GCC_Support/ewl/lib/armv6-m\libm.a(s_scalbnf.o)
                              C:/Appz/Freescale/CW MCU v10.6/MCU/ARM_GCC_Support/ewl/lib/armv6-m\libm.a(e_powf.o) (scalbnf)
C:/Appz/Freescale/CW MCU v10.6/MCU/ARM_GCC_Support/ewl/lib/armv6-m\libm.a(scalbn.o)
                              C:/Appz/Freescale/CW MCU v10.6/MCU/ARM_GCC_Support/ewl/lib/armv6-m\libm.a(e_pow.o) (scalbn)
C:/Appz/Freescale/CW MCU v10.6/MCU/ARM_GCC_Support/ewl/lib/armv6-m\libm.a(w_sqrt.o)
                              C:/Appz/Freescale/CW MCU v10.6/MCU/ARM_GCC_Support/ewl/lib/armv6-m\libm.a(e_pow.o) (sqrt)
C:/Appz/Freescale/CW MCU v10.6/MCU/ARM_GCC_Support/ewl/lib/armv6-m\libm.a(e_sqrt.o)
                              C:/Appz/Freescale/CW MCU v10.6/MCU/ARM_GCC_Support/ewl/lib/armv6-m\libm.a(w_sqrt.o) (__ieee754_sqrt)
C:/Appz/Freescale/CW MCU v10.6/MCU/ARM_GCC_Support/ewl/lib/armv6-m\libm.a(s_ldexp.o)
                              C:/Appz/Freescale/CW MCU v10.6/MCU/ARM_GCC_Support/ewl/lib/armv6-m\libm.a(scalbn.o) (ldexp)
c:/appz/freescale/cw mcu v10.6/cross_tools/arm-none-eabi-gcc-4_7_3/bin/../lib/gcc/arm-none-eabi/4.7.3/armv6-m\libgcc.a(_thumb1_case_sqi.o)
                              C:/Appz/Freescale/CW MCU v10.6/MCU/ARM_GCC_Support/ewl/lib/armv6-m\libc.a(__strtoul.o) (__gnu_thumb1_case_sqi)
c:/appz/freescale/cw mcu v10.6/cross_tools/arm-none-eabi-gcc-4_7_3/bin/../lib/gcc/arm-none-eabi/4.7.3/armv6-m\libgcc.a(_thumb1_case_uqi.o)
                              C:/Appz/Freescale/CW MCU v10.6/MCU/ARM_GCC_Support/ewl/lib/armv6-m\libc.a(scanformat_fp.o) (__gnu_thumb1_case_uqi)
c:/appz/freescale/cw mcu v10.6/cross_tools/arm-none-eabi-gcc-4_7_3/bin/../lib/gcc/arm-none-eabi/4.7.3/armv6-m\libgcc.a(_udivsi3.o)
                              ./Generated_Code/MQX1.o (__aeabi_uidiv)
c:/appz/freescale/cw mcu v10.6/cross_tools/arm-none-eabi-gcc-4_7_3/bin/../lib/gcc/arm-none-eabi/4.7.3/armv6-m\libgcc.a(_divsi3.o)
                              ./Sources/FSL_utils.o (__aeabi_idiv)
c:/appz/freescale/cw mcu v10.6/cross_tools/arm-none-eabi-gcc-4_7_3/bin/../lib/gcc/arm-none-eabi/4.7.3/armv6-m\libgcc.a(_dvmd_tls.o)
                              c:/appz/freescale/cw mcu v10.6/cross_tools/arm-none-eabi-gcc-4_7_3/bin/../lib/gcc/arm-none-eabi/4.7.3/armv6-m\libgcc.a(_udivsi3.o) (__aeabi_idiv0)
c:/appz/freescale/cw mcu v10.6/cross_tools/arm-none-eabi-gcc-4_7_3/bin/../lib/gcc/arm-none-eabi/4.7.3/armv6-m\libgcc.a(_arm_cmpdf2.o)
                              C:/Appz/Freescale/CW MCU v10.6/MCU/ARM_GCC_Support/ewl/lib/armv6-m\libc.a(__strtold.o) (__aeabi_dcmpeq)
c:/appz/freescale/cw mcu v10.6/cross_tools/arm-none-eabi-gcc-4_7_3/bin/../lib/gcc/arm-none-eabi/4.7.3/armv6-m\libgcc.a(_arm_cmpsf2.o)
                              D:/xuser00/Ansoft/XSFK_KL25Z/XSFK_KL25Z/Library\libFusion.a(baranski_kalman.o) (__aeabi_fcmpeq)
c:/appz/freescale/cw mcu v10.6/cross_tools/arm-none-eabi-gcc-4_7_3/bin/../lib/gcc/arm-none-eabi/4.7.3/armv6-m\libgcc.a(_fixunssfsi.o)
                              ./Generated_Code/PWM1.o (__aeabi_f2uiz)
c:/appz/freescale/cw mcu v10.6/cross_tools/arm-none-eabi-gcc-4_7_3/bin/../lib/gcc/arm-none-eabi/4.7.3/armv6-m\libgcc.a(addsf3.o)
                              ./Sources/user_tasks.o (__aeabi_fadd)
c:/appz/freescale/cw mcu v10.6/cross_tools/arm-none-eabi-gcc-4_7_3/bin/../lib/gcc/arm-none-eabi/4.7.3/armv6-m\libgcc.a(divsf3.o)
                              D:/xuser00/Ansoft/XSFK_KL25Z/XSFK_KL25Z/Library\libFusion.a(baranski_kalman.o) (__aeabi_fdiv)
c:/appz/freescale/cw mcu v10.6/cross_tools/arm-none-eabi-gcc-4_7_3/bin/../lib/gcc/arm-none-eabi/4.7.3/armv6-m\libgcc.a(eqsf2.o)
                              c:/appz/freescale/cw mcu v10.6/cross_tools/arm-none-eabi-gcc-4_7_3/bin/../lib/gcc/arm-none-eabi/4.7.3/armv6-m\libgcc.a(_arm_cmpsf2.o) (__eqsf2)
c:/appz/freescale/cw mcu v10.6/cross_tools/arm-none-eabi-gcc-4_7_3/bin/../lib/gcc/arm-none-eabi/4.7.3/armv6-m\libgcc.a(gesf2.o)
                              c:/appz/freescale/cw mcu v10.6/cross_tools/arm-none-eabi-gcc-4_7_3/bin/../lib/gcc/arm-none-eabi/4.7.3/armv6-m\libgcc.a(_arm_cmpsf2.o) (__gesf2)
c:/appz/freescale/cw mcu v10.6/cross_tools/arm-none-eabi-gcc-4_7_3/bin/../lib/gcc/arm-none-eabi/4.7.3/armv6-m\libgcc.a(lesf2.o)
                              c:/appz/freescale/cw mcu v10.6/cross_tools/arm-none-eabi-gcc-4_7_3/bin/../lib/gcc/arm-none-eabi/4.7.3/armv6-m\libgcc.a(_arm_cmpsf2.o) (__lesf2)
c:/appz/freescale/cw mcu v10.6/cross_tools/arm-none-eabi-gcc-4_7_3/bin/../lib/gcc/arm-none-eabi/4.7.3/armv6-m\libgcc.a(mulsf3.o)
                              ./Generated_Code/PWM1.o (__aeabi_fmul)
c:/appz/freescale/cw mcu v10.6/cross_tools/arm-none-eabi-gcc-4_7_3/bin/../lib/gcc/arm-none-eabi/4.7.3/armv6-m\libgcc.a(subsf3.o)
                              D:/xuser00/Ansoft/XSFK_KL25Z/XSFK_KL25Z/Library\libFusion.a(baranski_kalman.o) (__aeabi_fsub)
c:/appz/freescale/cw mcu v10.6/cross_tools/arm-none-eabi-gcc-4_7_3/bin/../lib/gcc/arm-none-eabi/4.7.3/armv6-m\libgcc.a(fixsfsi.o)
                              ./Sources/user_tasks.o (__aeabi_f2iz)
c:/appz/freescale/cw mcu v10.6/cross_tools/arm-none-eabi-gcc-4_7_3/bin/../lib/gcc/arm-none-eabi/4.7.3/armv6-m\libgcc.a(floatsisf.o)
                              ./Generated_Code/PWM1.o (__aeabi_i2f)
c:/appz/freescale/cw mcu v10.6/cross_tools/arm-none-eabi-gcc-4_7_3/bin/../lib/gcc/arm-none-eabi/4.7.3/armv6-m\libgcc.a(adddf3.o)
                              D:/xuser00/Ansoft/XSFK_KL25Z/XSFK_KL25Z/Library\libFusion.a(matrix.o) (__aeabi_dadd)
c:/appz/freescale/cw mcu v10.6/cross_tools/arm-none-eabi-gcc-4_7_3/bin/../lib/gcc/arm-none-eabi/4.7.3/armv6-m\libgcc.a(divdf3.o)
                              D:/xuser00/Ansoft/XSFK_KL25Z/XSFK_KL25Z/Library\libFusion.a(matrix.o) (__aeabi_ddiv)
c:/appz/freescale/cw mcu v10.6/cross_tools/arm-none-eabi-gcc-4_7_3/bin/../lib/gcc/arm-none-eabi/4.7.3/armv6-m\libgcc.a(eqdf2.o)
                              c:/appz/freescale/cw mcu v10.6/cross_tools/arm-none-eabi-gcc-4_7_3/bin/../lib/gcc/arm-none-eabi/4.7.3/armv6-m\libgcc.a(_arm_cmpdf2.o) (__eqdf2)
c:/appz/freescale/cw mcu v10.6/cross_tools/arm-none-eabi-gcc-4_7_3/bin/../lib/gcc/arm-none-eabi/4.7.3/armv6-m\libgcc.a(gedf2.o)
                              c:/appz/freescale/cw mcu v10.6/cross_tools/arm-none-eabi-gcc-4_7_3/bin/../lib/gcc/arm-none-eabi/4.7.3/armv6-m\libgcc.a(_arm_cmpdf2.o) (__gedf2)
c:/appz/freescale/cw mcu v10.6/cross_tools/arm-none-eabi-gcc-4_7_3/bin/../lib/gcc/arm-none-eabi/4.7.3/armv6-m\libgcc.a(ledf2.o)
                              c:/appz/freescale/cw mcu v10.6/cross_tools/arm-none-eabi-gcc-4_7_3/bin/../lib/gcc/arm-none-eabi/4.7.3/armv6-m\libgcc.a(_arm_cmpdf2.o) (__ledf2)
c:/appz/freescale/cw mcu v10.6/cross_tools/arm-none-eabi-gcc-4_7_3/bin/../lib/gcc/arm-none-eabi/4.7.3/armv6-m\libgcc.a(muldf3.o)
                              C:/Appz/Freescale/CW MCU v10.6/MCU/ARM_GCC_Support/ewl/lib/armv6-m\libm.a(ansi_fp.o) (__aeabi_dmul)
c:/appz/freescale/cw mcu v10.6/cross_tools/arm-none-eabi-gcc-4_7_3/bin/../lib/gcc/arm-none-eabi/4.7.3/armv6-m\libgcc.a(subdf3.o)
                              C:/Appz/Freescale/CW MCU v10.6/MCU/ARM_GCC_Support/ewl/lib/armv6-m\libm.a(ansi_fp.o) (__aeabi_dsub)
c:/appz/freescale/cw mcu v10.6/cross_tools/arm-none-eabi-gcc-4_7_3/bin/../lib/gcc/arm-none-eabi/4.7.3/armv6-m\libgcc.a(fixdfsi.o)
                              C:/Appz/Freescale/CW MCU v10.6/MCU/ARM_GCC_Support/ewl/lib/armv6-m\libm.a(ansi_fp.o) (__aeabi_d2iz)
c:/appz/freescale/cw mcu v10.6/cross_tools/arm-none-eabi-gcc-4_7_3/bin/../lib/gcc/arm-none-eabi/4.7.3/armv6-m\libgcc.a(floatsidf.o)
                              C:/Appz/Freescale/CW MCU v10.6/MCU/ARM_GCC_Support/ewl/lib/armv6-m\libm.a(ansi_fp.o) (__aeabi_i2d)
c:/appz/freescale/cw mcu v10.6/cross_tools/arm-none-eabi-gcc-4_7_3/bin/../lib/gcc/arm-none-eabi/4.7.3/armv6-m\libgcc.a(extendsfdf2.o)
                              ./Sources/user_tasks.o (__aeabi_f2d)
c:/appz/freescale/cw mcu v10.6/cross_tools/arm-none-eabi-gcc-4_7_3/bin/../lib/gcc/arm-none-eabi/4.7.3/armv6-m\libgcc.a(truncdfsf2.o)
                              D:/xuser00/Ansoft/XSFK_KL25Z/XSFK_KL25Z/Library\libFusion.a(matrix.o) (__aeabi_d2f)
c:/appz/freescale/cw mcu v10.6/cross_tools/arm-none-eabi-gcc-4_7_3/bin/../lib/gcc/arm-none-eabi/4.7.3/armv6-m\libgcc.a(_clzsi2.o)
                              c:/appz/freescale/cw mcu v10.6/cross_tools/arm-none-eabi-gcc-4_7_3/bin/../lib/gcc/arm-none-eabi/4.7.3/armv6-m\libgcc.a(addsf3.o) (__clzsi2)
C:/Appz/Freescale/CW MCU v10.6/MCU/ARM_GCC_Support/ewl/lib/armv6-m\librt.a(gcc_ctor_dtor.o)
                              ./Project_Settings/Startup_Code/__arm_start.o (__init_cpp)
C:/Appz/Freescale/CW MCU v10.6/MCU/ARM_GCC_Support/ewl/lib/armv6-m\librt.a(ROMCopy.o)
                              ./Project_Settings/Startup_Code/__arm_start.o (__copy_rom_sections_to_ram)
C:/Appz/Freescale/CW MCU v10.6/MCU/ARM_GCC_Support/ewl/lib/armv6-m\librt.a(__arm_eabi_init.o)
                              C:/Appz/Freescale/CW MCU v10.6/MCU/ARM_GCC_Support/ewl/lib/armv6-m\libc.a(exit.o) (__destroy_global_chain)
C:/Appz/Freescale/CW MCU v10.6/MCU/ARM_GCC_Support/ewl/lib/armv6-m\librt.a(setjmp.o)
                              ./MQXLITE/kernel/mqxlite.o (__setjmp)
C:/Appz/Freescale/CW MCU v10.6/MCU/ARM_GCC_Support/ewl/lib/armv6-m\libhosted.a(semihosted_console_io.o)
                              ./Project_Settings/Startup_Code/__arm_end.o (sys_exit)
C:/Appz/Freescale/CW MCU v10.6/MCU/ARM_GCC_Support/ewl/lib/armv6-m\libhosted.a(semihosted_file_io.o)
                              C:/Appz/Freescale/CW MCU v10.6/MCU/ARM_GCC_Support/ewl/lib/armv6-m\libhosted.a(semihosted_console_io.o) (__write_file)
C:/Appz/Freescale/CW MCU v10.6/MCU/ARM_GCC_Support/ewl/lib/armv6-m\libc.a(alloc.o)
                              C:/Appz/Freescale/CW MCU v10.6/MCU/ARM_GCC_Support/ewl/lib/armv6-m\libhosted.a(semihosted_file_io.o) (malloc)
C:/Appz/Freescale/CW MCU v10.6/MCU/ARM_GCC_Support/ewl/lib/armv6-m\libc.a(math_ARM.o)
                              C:/Appz/Freescale/CW MCU v10.6/MCU/ARM_GCC_Support/ewl/lib/armv6-m\libm.a(math_api.o) (__ewl_count_bits32)
c:/appz/freescale/cw mcu v10.6/cross_tools/arm-none-eabi-gcc-4_7_3/bin/../lib/gcc/arm-none-eabi/4.7.3/armv6-m\libgcc.a(_lshrdi3.o)
                              C:/Appz/Freescale/CW MCU v10.6/MCU/ARM_GCC_Support/ewl/lib/armv6-m\libc.a(math_ARM.o) (__aeabi_llsr)
c:/appz/freescale/cw mcu v10.6/cross_tools/arm-none-eabi-gcc-4_7_3/bin/../lib/gcc/arm-none-eabi/4.7.3/armv6-m\libgcc.a(_ashldi3.o)
                              C:/Appz/Freescale/CW MCU v10.6/MCU/ARM_GCC_Support/ewl/lib/armv6-m\libc.a(math_ARM.o) (__aeabi_llsl)

Allocating common symbols
Common symbol       size              file

thisSV_1DOF_P_BASIC
                    0x14              ./Sources/tasks_func.o
Main_task_stack     0x284             ./Generated_Code/MQX1.o
_mqx_zero_tick_struct
                    0xc               ./MQXLITE/kernel/mqxlite.o
Memory              0x4               ./Sources/user_tasks.o
_mqx_system_stack   0x4               ./MQXLITE/kernel/mqxlite.o
thisAccel           0x34              ./Sources/tasks_func.o
RdSensData_task_stack
                    0x384             ./Generated_Code/MQX1.o
errno               0x4               C:/Appz/Freescale/CW MCU v10.6/MCU/ARM_GCC_Support/ewl/lib/armv6-m\libc.a(errno.o)
thisSV_3DOF_B_BASIC
                    0xa0              ./Sources/tasks_func.o
_mqx_kernel_data_struct
                    0x260             ./Generated_Code/MQX1.o
sUARTOutputBuf      0x100             ./Sources/FSL_utils.o
mqx_interrupt_stack
                    0x110             ./Generated_Code/MQX1.o
I2C2_Buf            0x10              ./Sources/FSL_utils.o
thisMagBuffer       0xb58             ./Sources/tasks_func.o
sUARTInputBuf       0x4               ./Sources/FSL_utils.o
thisSV_3DOF_G_BASIC
                    0xa0              ./Sources/tasks_func.o
thisPressure        0x1c              ./Sources/tasks_func.o
_tad_task_at_flag   0x4               ./MQXLITE/kernel/task.o
vajda               0x4               ./Sources/user_tasks.o
mqxglobals          0x7c              ./Sources/mqx_tasks.o
mqx_static_ready_queue
                    0xd0              ./Generated_Code/MQX1.o
thisSV_6DOF_GB_BASIC
                    0xa8              ./Sources/tasks_func.o
mqx_static_isr_table
                    0x168             ./Generated_Code/MQX1.o
thisMagCal          0x418             ./Sources/tasks_func.o
SR_reg              0x1               ./Generated_Code/Cpu.o
mqx_idle_task_stack
                    0x128             ./Generated_Code/MQX1.o
thisGyro            0x54              ./Sources/tasks_func.o
Fusion_task_stack   0x484             ./Generated_Code/MQX1.o
globals             0x1c              ./Sources/mqx_tasks.o
jozo                0x4               ./Sources/user_tasks.o
mqx_system_stack    0xac              ./Generated_Code/MQX1.o
Sum                 0x4               ./Sources/user_tasks.o
MagCal_task_stack   0x384             ./Generated_Code/MQX1.o
thisSV_9DOF_GBY_KALMAN
                    0x7a0             ./Sources/tasks_func.o
thisSV_6DOF_GY_KALMAN
                    0x46c             ./Sources/tasks_func.o
thisMag             0x58              ./Sources/tasks_func.o
thisSV_3DOF_Y_BASIC
                    0x7c              ./Sources/tasks_func.o
_mqx_exit_jump_buffer_internal
                    0x40              ./MQXLITE/kernel/mqxlite.o

Discarded input sections

 .text          0x00000000        0x0 ./Generated_Code/Vectors.o
 .data          0x00000000        0x0 ./Generated_Code/Vectors.o
 .bss           0x00000000        0x0 ./Generated_Code/Vectors.o
 .text          0x00000000        0x0 ./Generated_Code/UP.o
 .data          0x00000000        0x0 ./Generated_Code/UP.o
 .bss           0x00000000        0x0 ./Generated_Code/UP.o
 .debug_info    0x00000000       0x76 ./Generated_Code/UP.o
 .debug_abbrev  0x00000000       0x28 ./Generated_Code/UP.o
 .debug_aranges
                0x00000000       0x18 ./Generated_Code/UP.o
 .debug_macinfo
                0x00000000    0x2f050 ./Generated_Code/UP.o
 .debug_line    0x00000000      0x284 ./Generated_Code/UP.o
 .debug_str     0x00000000      0x125 ./Generated_Code/UP.o
 .comment       0x00000000       0x7a ./Generated_Code/UP.o
 .ARM.attributes
                0x00000000       0x31 ./Generated_Code/UP.o
 .text          0x00000000        0x0 ./Generated_Code/UART.o
 .data          0x00000000        0x0 ./Generated_Code/UART.o
 .bss           0x00000000        0x0 ./Generated_Code/UART.o
 .text.UART_GetSentDataNum
                0x00000000        0x4 ./Generated_Code/UART.o
 .text          0x00000000        0x0 ./Generated_Code/TestPin_MagCal_Time.o
 .data          0x00000000        0x0 ./Generated_Code/TestPin_MagCal_Time.o
 .bss           0x00000000        0x0 ./Generated_Code/TestPin_MagCal_Time.o
 .text.TestPin_MagCal_Time_GetVal
                0x00000000       0x10 ./Generated_Code/TestPin_MagCal_Time.o
 .text.TestPin_MagCal_Time_PutVal
                0x00000000       0x18 ./Generated_Code/TestPin_MagCal_Time.o
 .text          0x00000000        0x0 ./Generated_Code/TestPin_KF_Time.o
 .data          0x00000000        0x0 ./Generated_Code/TestPin_KF_Time.o
 .bss           0x00000000        0x0 ./Generated_Code/TestPin_KF_Time.o
 .text.TestPin_KF_Time_GetVal
                0x00000000       0x10 ./Generated_Code/TestPin_KF_Time.o
 .text.TestPin_KF_Time_PutVal
                0x00000000       0x18 ./Generated_Code/TestPin_KF_Time.o
 .text          0x00000000        0x0 ./Generated_Code/TU1.o
 .data          0x00000000        0x0 ./Generated_Code/TU1.o
 .bss           0x00000000        0x0 ./Generated_Code/TU1.o
 .text.TU1_GetCounterValue
                0x00000000        0xc ./Generated_Code/TU1.o
 .text.TU1_GetOffsetTicks
                0x00000000       0x18 ./Generated_Code/TU1.o
 .text.TU1_SelectOutputAction
                0x00000000       0xa4 ./Generated_Code/TU1.o
 .text          0x00000000        0x0 ./Generated_Code/SystemTimer1.o
 .data          0x00000000        0x0 ./Generated_Code/SystemTimer1.o
 .bss           0x00000000        0x0 ./Generated_Code/SystemTimer1.o
 .text.SystemTimer1_Deinit
                0x00000000       0x24 ./Generated_Code/SystemTimer1.o
 .text.SystemTimer1_SetPeriodTicks
                0x00000000       0x20 ./Generated_Code/SystemTimer1.o
 .text.SystemTimer1_ResetCounter
                0x00000000       0x28 ./Generated_Code/SystemTimer1.o
 .text          0x00000000        0x0 ./Generated_Code/RIGHT.o
 .data          0x00000000        0x0 ./Generated_Code/RIGHT.o
 .bss           0x00000000        0x0 ./Generated_Code/RIGHT.o
 .debug_info    0x00000000       0x76 ./Generated_Code/RIGHT.o
 .debug_abbrev  0x00000000       0x28 ./Generated_Code/RIGHT.o
 .debug_aranges
                0x00000000       0x18 ./Generated_Code/RIGHT.o
 .debug_macinfo
                0x00000000    0x2f005 ./Generated_Code/RIGHT.o
 .debug_line    0x00000000      0x28a ./Generated_Code/RIGHT.o
 .debug_str     0x00000000      0x128 ./Generated_Code/RIGHT.o
 .comment       0x00000000       0x7a ./Generated_Code/RIGHT.o
 .ARM.attributes
                0x00000000       0x31 ./Generated_Code/RIGHT.o
 .text          0x00000000        0x0 ./Generated_Code/PWM1.o
 .data          0x00000000        0x0 ./Generated_Code/PWM1.o
 .bss           0x00000000        0x0 ./Generated_Code/PWM1.o
 .text.PWM1_SetDutyMS
                0x00000000       0x6c ./Generated_Code/PWM1.o
 .text          0x00000000        0x0 ./Generated_Code/PE_LDD.o
 .data          0x00000000        0x0 ./Generated_Code/PE_LDD.o
 .bss           0x00000000        0x0 ./Generated_Code/PE_LDD.o
 .text.PE_FillMemory
                0x00000000       0xf4 ./Generated_Code/PE_LDD.o
 .text.PE_PeripheralUsed
                0x00000000       0x7c ./Generated_Code/PE_LDD.o
 .text.LDD_SetClockConfiguration
                0x00000000        0x4 ./Generated_Code/PE_LDD.o
 .rodata.PE_CpuClockConfigurations
                0x00000000       0x28 ./Generated_Code/PE_LDD.o
 .text          0x00000000        0x0 ./Generated_Code/MQX1.o
 .data          0x00000000        0x0 ./Generated_Code/MQX1.o
 .bss           0x00000000        0x0 ./Generated_Code/MQX1.o
 .text.PEX_RTOS_InstallInterrupt
                0x00000000       0x14 ./Generated_Code/MQX1.o
 .text          0x00000000        0x0 ./Generated_Code/LEFT.o
 .data          0x00000000        0x0 ./Generated_Code/LEFT.o
 .bss           0x00000000        0x0 ./Generated_Code/LEFT.o
 .debug_info    0x00000000       0x76 ./Generated_Code/LEFT.o
 .debug_abbrev  0x00000000       0x28 ./Generated_Code/LEFT.o
 .debug_aranges
                0x00000000       0x18 ./Generated_Code/LEFT.o
 .debug_macinfo
                0x00000000    0x2efff ./Generated_Code/LEFT.o
 .debug_line    0x00000000      0x288 ./Generated_Code/LEFT.o
 .debug_str     0x00000000      0x127 ./Generated_Code/LEFT.o
 .comment       0x00000000       0x7a ./Generated_Code/LEFT.o
 .ARM.attributes
                0x00000000       0x31 ./Generated_Code/LEFT.o
 .text          0x00000000        0x0 ./Generated_Code/LED_RED.o
 .data          0x00000000        0x0 ./Generated_Code/LED_RED.o
 .bss           0x00000000        0x0 ./Generated_Code/LED_RED.o
 .text.LED_RED_GetVal
                0x00000000       0x10 ./Generated_Code/LED_RED.o
 .text.LED_RED_PutVal
                0x00000000       0x18 ./Generated_Code/LED_RED.o
 .text.LED_RED_ClrVal
                0x00000000       0x10 ./Generated_Code/LED_RED.o
 .text.LED_RED_NegVal
                0x00000000       0x10 ./Generated_Code/LED_RED.o
 .text          0x00000000        0x0 ./Generated_Code/LED_GREEN.o
 .data          0x00000000        0x0 ./Generated_Code/LED_GREEN.o
 .bss           0x00000000        0x0 ./Generated_Code/LED_GREEN.o
 .text.LED_GREEN_GetVal
                0x00000000       0x10 ./Generated_Code/LED_GREEN.o
 .text.LED_GREEN_PutVal
                0x00000000       0x18 ./Generated_Code/LED_GREEN.o
 .text.LED_GREEN_ClrVal
                0x00000000       0x10 ./Generated_Code/LED_GREEN.o
 .text.LED_GREEN_NegVal
                0x00000000       0x10 ./Generated_Code/LED_GREEN.o
 .text          0x00000000        0x0 ./Generated_Code/I2C.o
 .data          0x00000000        0x0 ./Generated_Code/I2C.o
 .bss           0x00000000        0x0 ./Generated_Code/I2C.o
 .text.I2C_Deinit
                0x00000000       0x34 ./Generated_Code/I2C.o
 .text.I2C_MasterGetBlockSentStatus
                0x00000000       0x1c ./Generated_Code/I2C.o
 .text.I2C_MasterGetBlockReceivedStatus
                0x00000000       0x1c ./Generated_Code/I2C.o
 .text          0x00000000        0x0 ./Generated_Code/FTM.o
 .data          0x00000000        0x0 ./Generated_Code/FTM.o
 .bss           0x00000000        0x0 ./Generated_Code/FTM.o
 .text          0x00000000        0x0 ./Generated_Code/DOWN.o
 .data          0x00000000        0x0 ./Generated_Code/DOWN.o
 .bss           0x00000000        0x0 ./Generated_Code/DOWN.o
 .debug_info    0x00000000       0x76 ./Generated_Code/DOWN.o
 .debug_abbrev  0x00000000       0x28 ./Generated_Code/DOWN.o
 .debug_aranges
                0x00000000       0x18 ./Generated_Code/DOWN.o
 .debug_macinfo
                0x00000000    0x2efff ./Generated_Code/DOWN.o
 .debug_line    0x00000000      0x288 ./Generated_Code/DOWN.o
 .debug_str     0x00000000      0x127 ./Generated_Code/DOWN.o
 .comment       0x00000000       0x7a ./Generated_Code/DOWN.o
 .ARM.attributes
                0x00000000       0x31 ./Generated_Code/DOWN.o
 .text          0x00000000        0x0 ./Generated_Code/Cpu.o
 .data          0x00000000        0x0 ./Generated_Code/Cpu.o
 .bss           0x00000000        0x0 ./Generated_Code/Cpu.o
 .bss.SR_lock   0x00000000        0x1 ./Generated_Code/Cpu.o
 COMMON         0x00000000        0x1 ./Generated_Code/Cpu.o
 .text          0x00000000        0x0 ./Generated_Code/BitIoLdd6.o
 .data          0x00000000        0x0 ./Generated_Code/BitIoLdd6.o
 .bss           0x00000000        0x0 ./Generated_Code/BitIoLdd6.o
 .text.BitIoLdd6_SetDir
                0x00000000       0x20 ./Generated_Code/BitIoLdd6.o
 .text.BitIoLdd6_GetVal
                0x00000000       0x24 ./Generated_Code/BitIoLdd6.o
 .text.BitIoLdd6_PutVal
                0x00000000       0x18 ./Generated_Code/BitIoLdd6.o
 .text          0x00000000        0x0 ./Generated_Code/BitIoLdd5.o
 .data          0x00000000        0x0 ./Generated_Code/BitIoLdd5.o
 .bss           0x00000000        0x0 ./Generated_Code/BitIoLdd5.o
 .text.BitIoLdd5_SetDir
                0x00000000       0x20 ./Generated_Code/BitIoLdd5.o
 .text.BitIoLdd5_GetVal
                0x00000000       0x20 ./Generated_Code/BitIoLdd5.o
 .text.BitIoLdd5_PutVal
                0x00000000       0x18 ./Generated_Code/BitIoLdd5.o
 .text          0x00000000        0x0 ./Generated_Code/BitIoLdd4.o
 .data          0x00000000        0x0 ./Generated_Code/BitIoLdd4.o
 .bss           0x00000000        0x0 ./Generated_Code/BitIoLdd4.o
 .text.BitIoLdd4_SetDir
                0x00000000       0x20 ./Generated_Code/BitIoLdd4.o
 .text.BitIoLdd4_GetVal
                0x00000000       0x24 ./Generated_Code/BitIoLdd4.o
 .text.BitIoLdd4_PutVal
                0x00000000       0x18 ./Generated_Code/BitIoLdd4.o
 .text.BitIoLdd4_ClrVal
                0x00000000        0xc ./Generated_Code/BitIoLdd4.o
 .text.BitIoLdd4_SetVal
                0x00000000        0xc ./Generated_Code/BitIoLdd4.o
 .text          0x00000000        0x0 ./Generated_Code/BitIoLdd3.o
 .data          0x00000000        0x0 ./Generated_Code/BitIoLdd3.o
 .bss           0x00000000        0x0 ./Generated_Code/BitIoLdd3.o
 .text.BitIoLdd3_SetDir
                0x00000000       0x20 ./Generated_Code/BitIoLdd3.o
 .text.BitIoLdd3_GetVal
                0x00000000       0x20 ./Generated_Code/BitIoLdd3.o
 .text.BitIoLdd3_PutVal
                0x00000000       0x18 ./Generated_Code/BitIoLdd3.o
 .text.BitIoLdd3_ClrVal
                0x00000000        0xc ./Generated_Code/BitIoLdd3.o
 .text.BitIoLdd3_SetVal
                0x00000000        0xc ./Generated_Code/BitIoLdd3.o
 .text          0x00000000        0x0 ./Generated_Code/BitIoLdd2.o
 .data          0x00000000        0x0 ./Generated_Code/BitIoLdd2.o
 .bss           0x00000000        0x0 ./Generated_Code/BitIoLdd2.o
 .text.BitIoLdd2_SetDir
                0x00000000       0x20 ./Generated_Code/BitIoLdd2.o
 .text.BitIoLdd2_GetVal
                0x00000000       0x24 ./Generated_Code/BitIoLdd2.o
 .text.BitIoLdd2_PutVal
                0x00000000       0x18 ./Generated_Code/BitIoLdd2.o
 .text.BitIoLdd2_ClrVal
                0x00000000        0xc ./Generated_Code/BitIoLdd2.o
 .text.BitIoLdd2_SetVal
                0x00000000        0xc ./Generated_Code/BitIoLdd2.o
 .text          0x00000000        0x0 ./Generated_Code/BitIoLdd1.o
 .data          0x00000000        0x0 ./Generated_Code/BitIoLdd1.o
 .bss           0x00000000        0x0 ./Generated_Code/BitIoLdd1.o
 .text.BitIoLdd1_GetDir
                0x00000000       0x10 ./Generated_Code/BitIoLdd1.o
 .text.BitIoLdd1_SetDir
                0x00000000       0x28 ./Generated_Code/BitIoLdd1.o
 .text.BitIoLdd1_PutVal
                0x00000000       0x18 ./Generated_Code/BitIoLdd1.o
 .text.BitIoLdd1_ClrVal
                0x00000000       0x10 ./Generated_Code/BitIoLdd1.o
 .text.BitIoLdd1_SetVal
                0x00000000       0x10 ./Generated_Code/BitIoLdd1.o
 .text          0x00000000        0x0 ./Generated_Code/Bit2.o
 .data          0x00000000        0x0 ./Generated_Code/Bit2.o
 .bss           0x00000000        0x0 ./Generated_Code/Bit2.o
 .debug_info    0x00000000       0x76 ./Generated_Code/Bit2.o
 .debug_abbrev  0x00000000       0x28 ./Generated_Code/Bit2.o
 .debug_aranges
                0x00000000       0x18 ./Generated_Code/Bit2.o
 .debug_macinfo
                0x00000000    0x2efff ./Generated_Code/Bit2.o
 .debug_line    0x00000000      0x288 ./Generated_Code/Bit2.o
 .debug_str     0x00000000      0x127 ./Generated_Code/Bit2.o
 .comment       0x00000000       0x7a ./Generated_Code/Bit2.o
 .ARM.attributes
                0x00000000       0x31 ./Generated_Code/Bit2.o
 .text          0x00000000        0x0 ./Generated_Code/Bit1.o
 .data          0x00000000        0x0 ./Generated_Code/Bit1.o
 .bss           0x00000000        0x0 ./Generated_Code/Bit1.o
 .debug_info    0x00000000       0x76 ./Generated_Code/Bit1.o
 .debug_abbrev  0x00000000       0x28 ./Generated_Code/Bit1.o
 .debug_aranges
                0x00000000       0x18 ./Generated_Code/Bit1.o
 .debug_macinfo
                0x00000000    0x2efff ./Generated_Code/Bit1.o
 .debug_line    0x00000000      0x288 ./Generated_Code/Bit1.o
 .debug_str     0x00000000      0x127 ./Generated_Code/Bit1.o
 .comment       0x00000000       0x7a ./Generated_Code/Bit1.o
 .ARM.attributes
                0x00000000       0x31 ./Generated_Code/Bit1.o
 .text          0x00000000        0x0 ./MQXLITE/config/task_template_list.o
 .data          0x00000000        0x0 ./MQXLITE/config/task_template_list.o
 .bss           0x00000000        0x0 ./MQXLITE/config/task_template_list.o
 .text          0x00000000        0x0 ./MQXLITE/kernel/time_ticks.o
 .data          0x00000000        0x0 ./MQXLITE/kernel/time_ticks.o
 .bss           0x00000000        0x0 ./MQXLITE/kernel/time_ticks.o
 .text._time_delay_internal
                0x00000000       0xb4 ./MQXLITE/kernel/time_ticks.o
 .text._time_delay_ticks
                0x00000000       0xf8 ./MQXLITE/kernel/time_ticks.o
 .text._time_diff_ticks
                0x00000000       0x1c ./MQXLITE/kernel/time_ticks.o
 .text._time_diff_ticks_int32
                0x00000000       0x24 ./MQXLITE/kernel/time_ticks.o
 .text._time_dequeue
                0x00000000       0x44 ./MQXLITE/kernel/time_ticks.o
 .text._time_dequeue_td
                0x00000000       0x40 ./MQXLITE/kernel/time_ticks.o
 .text._time_get_elapsed_ticks
                0x00000000       0x58 ./MQXLITE/kernel/time_ticks.o
 .text._time_get_elapsed_ticks_fast
                0x00000000       0x38 ./MQXLITE/kernel/time_ticks.o
 .text._time_get_hwticks
                0x00000000       0x24 ./MQXLITE/kernel/time_ticks.o
 .text._time_get_ticks
                0x00000000       0x68 ./MQXLITE/kernel/time_ticks.o
 .text._time_get_hwticks_per_tick
                0x00000000       0x10 ./MQXLITE/kernel/time_ticks.o
 .text._time_init_ticks
                0x00000000       0x34 ./MQXLITE/kernel/time_ticks.o
 .text._time_set_ticks
                0x00000000       0x3c ./MQXLITE/kernel/time_ticks.o
 .text._time_set_timer_vector
                0x00000000       0x10 ./MQXLITE/kernel/time_ticks.o
 .text._time_set_hwticks_per_tick
                0x00000000       0x10 ./MQXLITE/kernel/time_ticks.o
 .text._time_get_ticks_per_sec
                0x00000000       0x10 ./MQXLITE/kernel/time_ticks.o
 .text          0x00000000        0x0 ./MQXLITE/kernel/task.o
 .data          0x00000000        0x0 ./MQXLITE/kernel/task.o
 .bss           0x00000000        0x0 ./MQXLITE/kernel/task.o
 .text._task_get_exception_handler
                0x00000000       0xc4 ./MQXLITE/kernel/task.o
 .text._task_set_exception_handler
                0x00000000       0xd0 ./MQXLITE/kernel/task.o
 .text._task_get_exit_handler
                0x00000000       0xc4 ./MQXLITE/kernel/task.o
 .text._task_set_exit_handler
                0x00000000       0xd0 ./MQXLITE/kernel/task.o
 .text._task_get_id_from_name
                0x00000000       0x9c ./MQXLITE/kernel/task.o
 .text._task_get_template_ptr
                0x00000000       0x94 ./MQXLITE/kernel/task.o
 .text._task_get_template_index
                0x00000000       0x48 ./MQXLITE/kernel/task.o
 .text._task_get_id_from_td
                0x00000000       0x10 ./MQXLITE/kernel/task.o
 .text._task_get_index_from_id
                0x00000000       0x94 ./MQXLITE/kernel/task.o
 .text._task_get_parameter
                0x00000000       0x14 ./MQXLITE/kernel/task.o
 .text._task_get_parameter_for
                0x00000000       0x90 ./MQXLITE/kernel/task.o
 .text._task_get_parameter_internal
                0x00000000        0xc ./MQXLITE/kernel/task.o
 .text._task_set_parameter
                0x00000000       0x1c ./MQXLITE/kernel/task.o
 .text._task_set_parameter_for
                0x00000000       0xb0 ./MQXLITE/kernel/task.o
 .text._task_set_parameter_internal
                0x00000000       0x14 ./MQXLITE/kernel/task.o
 .text._task_get_priority
                0x00000000       0xac ./MQXLITE/kernel/task.o
 .text._task_set_priority
                0x00000000      0x120 ./MQXLITE/kernel/task.o
 .text._task_ready
                0x00000000       0xa4 ./MQXLITE/kernel/task.o
 .text._task_abort_internal
                0x00000000      0x148 ./MQXLITE/kernel/task.o
 .text._task_abort
                0x00000000        0xc ./MQXLITE/kernel/task.o
 .text._task_restart
                0x00000000      0x344 ./MQXLITE/kernel/task.o
 .text._task_stop_preemption
                0x00000000       0x20 ./MQXLITE/kernel/task.o
 .text._task_start_preemption
                0x00000000       0x28 ./MQXLITE/kernel/task.o
 .text._task_check_stack
                0x00000000       0x20 ./MQXLITE/kernel/task.o
 .text._task_get_creator
                0x00000000       0x10 ./MQXLITE/kernel/task.o
 .text._task_get_error
                0x00000000       0x1c ./MQXLITE/kernel/task.o
 .text._task_get_error_ptr
                0x00000000       0x1c ./MQXLITE/kernel/task.o
 .text._task_get_id
                0x00000000       0x10 ./MQXLITE/kernel/task.o
 .text._task_get_td
                0x00000000       0x8c ./MQXLITE/kernel/task.o
 .text._task_exiting_function_internal
                0x00000000        0x4 ./MQXLITE/kernel/task.o
 .text._task_build_internal
                0x00000000       0xa8 ./MQXLITE/kernel/task.o
 .text._task_sync_priority_internal
                0x00000000        0x4 ./MQXLITE/kernel/task.o
 .text._task_alloc_td_internal
                0x00000000       0x94 ./MQXLITE/kernel/task.o
 .text          0x00000000        0x0 ./MQXLITE/kernel/sched.o
 .data          0x00000000        0x0 ./MQXLITE/kernel/sched.o
 .bss           0x00000000        0x0 ./MQXLITE/kernel/sched.o
 .text._sched_get_max_priority
                0x00000000        0x4 ./MQXLITE/kernel/sched.o
 .text._sched_get_min_priority
                0x00000000       0x10 ./MQXLITE/kernel/sched.o
 .text._sched_yield
                0x00000000       0x54 ./MQXLITE/kernel/sched.o
 .text._sched_boost_priority_internal
                0x00000000       0x7c ./MQXLITE/kernel/sched.o
 .text._sched_unboost_priority_internal
                0x00000000       0x90 ./MQXLITE/kernel/sched.o
 .text._sched_insert_priorityq_internal
                0x00000000       0x6c ./MQXLITE/kernel/sched.o
 .text._sched_get_max_priority_on_q_internal
                0x00000000       0x60 ./MQXLITE/kernel/sched.o
 .text._sched_set_priority_internal
                0x00000000       0x68 ./MQXLITE/kernel/sched.o
 .debug_info    0x00000000      0xec3 ./MQXLITE/kernel/sched.o
 .debug_abbrev  0x00000000      0x202 ./MQXLITE/kernel/sched.o
 .debug_loc     0x00000000      0x733 ./MQXLITE/kernel/sched.o
 .debug_aranges
                0x00000000       0x58 ./MQXLITE/kernel/sched.o
 .debug_macinfo
                0x00000000    0x3e67b ./MQXLITE/kernel/sched.o
 .debug_line    0x00000000      0x7cc ./MQXLITE/kernel/sched.o
 .debug_str     0x00000000      0xc23 ./MQXLITE/kernel/sched.o
 .comment       0x00000000       0x7a ./MQXLITE/kernel/sched.o
 .ARM.attributes
                0x00000000       0x31 ./MQXLITE/kernel/sched.o
 .debug_frame   0x00000000       0xe4 ./MQXLITE/kernel/sched.o
 .text          0x00000000        0x0 ./MQXLITE/kernel/qu_test.o
 .data          0x00000000        0x0 ./MQXLITE/kernel/qu_test.o
 .bss           0x00000000        0x0 ./MQXLITE/kernel/qu_test.o
 .text._queue_test
                0x00000000       0x7c ./MQXLITE/kernel/qu_test.o
 .debug_info    0x00000000      0x1aa ./MQXLITE/kernel/qu_test.o
 .debug_abbrev  0x00000000       0xa9 ./MQXLITE/kernel/qu_test.o
 .debug_loc     0x00000000      0x150 ./MQXLITE/kernel/qu_test.o
 .debug_aranges
                0x00000000       0x20 ./MQXLITE/kernel/qu_test.o
 .debug_macinfo
                0x00000000    0x3e6cc ./MQXLITE/kernel/qu_test.o
 .debug_line    0x00000000      0x692 ./MQXLITE/kernel/qu_test.o
 .debug_str     0x00000000      0x1ef ./MQXLITE/kernel/qu_test.o
 .comment       0x00000000       0x7a ./MQXLITE/kernel/qu_test.o
 .ARM.attributes
                0x00000000       0x31 ./MQXLITE/kernel/qu_test.o
 .debug_frame   0x00000000       0x2c ./MQXLITE/kernel/qu_test.o
 .text          0x00000000        0x0 ./MQXLITE/kernel/mutex.o
 .data          0x00000000        0x0 ./MQXLITE/kernel/mutex.o
 .bss           0x00000000        0x0 ./MQXLITE/kernel/mutex.o
 .debug_info    0x00000000       0x7d ./MQXLITE/kernel/mutex.o
 .debug_abbrev  0x00000000       0x28 ./MQXLITE/kernel/mutex.o
 .debug_aranges
                0x00000000       0x18 ./MQXLITE/kernel/mutex.o
 .debug_macinfo
                0x00000000    0x3e67b ./MQXLITE/kernel/mutex.o
 .debug_line    0x00000000      0x64c ./MQXLITE/kernel/mutex.o
 .debug_str     0x00000000      0x12f ./MQXLITE/kernel/mutex.o
 .comment       0x00000000       0x7a ./MQXLITE/kernel/mutex.o
 .ARM.attributes
                0x00000000       0x31 ./MQXLITE/kernel/mutex.o
 .text          0x00000000        0x0 ./MQXLITE/kernel/mqxlite.o
 .data          0x00000000        0x0 ./MQXLITE/kernel/mqxlite.o
 .bss           0x00000000        0x0 ./MQXLITE/kernel/mqxlite.o
 .rodata._mqx_date
                0x00000000        0x4 ./MQXLITE/kernel/mqxlite.o
 .rodata._mqx_generic_revision
                0x00000000        0x4 ./MQXLITE/kernel/mqxlite.o
 .rodata._mqxlite_version
                0x00000000        0x4 ./MQXLITE/kernel/mqxlite.o
 .rodata._mqx_psp_revision
                0x00000000        0x4 ./MQXLITE/kernel/mqxlite.o
 .rodata._mqx_version
                0x00000000        0x4 ./MQXLITE/kernel/mqxlite.o
 .rodata._mqx_copyright
                0x00000000        0x4 ./MQXLITE/kernel/mqxlite.o
 .text          0x00000000        0x0 ./MQXLITE/kernel/mqx_utils.o
 .data          0x00000000        0x0 ./MQXLITE/kernel/mqx_utils.o
 .bss           0x00000000        0x0 ./MQXLITE/kernel/mqx_utils.o
 .text._mqx_get_kernel_data
                0x00000000        0xc ./MQXLITE/kernel/mqx_utils.o
 .text._mqx_fatal_error
                0x00000000        0x8 ./MQXLITE/kernel/mqx_utils.o
 .text._mqx_get_cpu_type
                0x00000000        0xc ./MQXLITE/kernel/mqx_utils.o
 .text._mqx_get_initialization
                0x00000000       0x10 ./MQXLITE/kernel/mqx_utils.o
 .text._mqx_get_exit_handler
                0x00000000       0x10 ./MQXLITE/kernel/mqx_utils.o
 .text._mqx_set_exit_handler
                0x00000000       0x10 ./MQXLITE/kernel/mqx_utils.o
 .text._mqx_get_system_task_id
                0x00000000        0xc ./MQXLITE/kernel/mqx_utils.o
 .text          0x00000000        0x0 ./MQXLITE/kernel/lwtimer.o
 .data          0x00000000        0x0 ./MQXLITE/kernel/lwtimer.o
 .bss           0x00000000        0x0 ./MQXLITE/kernel/lwtimer.o
 .text._lwtimer_isr_internal
                0x00000000       0x74 ./MQXLITE/kernel/lwtimer.o
 .text._lwtimer_create_periodic_queue
                0x00000000       0x6c ./MQXLITE/kernel/lwtimer.o
 .text._lwtimer_add_timer_to_queue
                0x00000000       0x7c ./MQXLITE/kernel/lwtimer.o
 .text._lwtimer_cancel_timer
                0x00000000       0x50 ./MQXLITE/kernel/lwtimer.o
 .text._lwtimer_cancel_period
                0x00000000       0x40 ./MQXLITE/kernel/lwtimer.o
 .text._lwtimer_test
                0x00000000       0xc4 ./MQXLITE/kernel/lwtimer.o
 .debug_info    0x00000000      0xea7 ./MQXLITE/kernel/lwtimer.o
 .debug_abbrev  0x00000000      0x1c8 ./MQXLITE/kernel/lwtimer.o
 .debug_loc     0x00000000      0x480 ./MQXLITE/kernel/lwtimer.o
 .debug_aranges
                0x00000000       0x48 ./MQXLITE/kernel/lwtimer.o
 .debug_macinfo
                0x00000000    0x3e6d3 ./MQXLITE/kernel/lwtimer.o
 .debug_line    0x00000000      0x7c8 ./MQXLITE/kernel/lwtimer.o
 .debug_str     0x00000000      0xc82 ./MQXLITE/kernel/lwtimer.o
 .comment       0x00000000       0x7a ./MQXLITE/kernel/lwtimer.o
 .ARM.attributes
                0x00000000       0x31 ./MQXLITE/kernel/lwtimer.o
 .debug_frame   0x00000000       0xd8 ./MQXLITE/kernel/lwtimer.o
 .text          0x00000000        0x0 ./MQXLITE/kernel/lwsem.o
 .data          0x00000000        0x0 ./MQXLITE/kernel/lwsem.o
 .bss           0x00000000        0x0 ./MQXLITE/kernel/lwsem.o
 .text._lwsem_create_internal
                0x00000000       0x68 ./MQXLITE/kernel/lwsem.o
 .text._lwsem_create_hidden
                0x00000000       0x28 ./MQXLITE/kernel/lwsem.o
 .text._lwsem_destroy_internal
                0x00000000       0xd8 ./MQXLITE/kernel/lwsem.o
 .text._lwsem_destroy
                0x00000000        0xc ./MQXLITE/kernel/lwsem.o
 .text._lwsem_poll
                0x00000000       0x54 ./MQXLITE/kernel/lwsem.o
 .text._lwsem_test
                0x00000000       0xdc ./MQXLITE/kernel/lwsem.o
 .text._lwsem_wait_timed_internal
                0x00000000       0x44 ./MQXLITE/kernel/lwsem.o
 .text._lwsem_wait_for
                0x00000000       0xb4 ./MQXLITE/kernel/lwsem.o
 .text._lwsem_wait_ticks
                0x00000000       0xf0 ./MQXLITE/kernel/lwsem.o
 .text._lwsem_wait_until
                0x00000000       0xac ./MQXLITE/kernel/lwsem.o
 .text          0x00000000        0x0 ./MQXLITE/kernel/lwmsgq.o
 .data          0x00000000        0x0 ./MQXLITE/kernel/lwmsgq.o
 .bss           0x00000000        0x0 ./MQXLITE/kernel/lwmsgq.o
 .debug_info    0x00000000       0x7d ./MQXLITE/kernel/lwmsgq.o
 .debug_abbrev  0x00000000       0x28 ./MQXLITE/kernel/lwmsgq.o
 .debug_aranges
                0x00000000       0x18 ./MQXLITE/kernel/lwmsgq.o
 .debug_macinfo
                0x00000000    0x3e67b ./MQXLITE/kernel/lwmsgq.o
 .debug_line    0x00000000      0x64d ./MQXLITE/kernel/lwmsgq.o
 .debug_str     0x00000000      0x130 ./MQXLITE/kernel/lwmsgq.o
 .comment       0x00000000       0x7a ./MQXLITE/kernel/lwmsgq.o
 .ARM.attributes
                0x00000000       0x31 ./MQXLITE/kernel/lwmsgq.o
 .text          0x00000000        0x0 ./MQXLITE/kernel/lwlog.o
 .data          0x00000000        0x0 ./MQXLITE/kernel/lwlog.o
 .bss           0x00000000        0x0 ./MQXLITE/kernel/lwlog.o
 .debug_info    0x00000000       0x7d ./MQXLITE/kernel/lwlog.o
 .debug_abbrev  0x00000000       0x28 ./MQXLITE/kernel/lwlog.o
 .debug_aranges
                0x00000000       0x18 ./MQXLITE/kernel/lwlog.o
 .debug_macinfo
                0x00000000    0x3e67b ./MQXLITE/kernel/lwlog.o
 .debug_line    0x00000000      0x64c ./MQXLITE/kernel/lwlog.o
 .debug_str     0x00000000      0x12f ./MQXLITE/kernel/lwlog.o
 .comment       0x00000000       0x7a ./MQXLITE/kernel/lwlog.o
 .ARM.attributes
                0x00000000       0x31 ./MQXLITE/kernel/lwlog.o
 .text          0x00000000        0x0 ./MQXLITE/kernel/lwevent.o
 .data          0x00000000        0x0 ./MQXLITE/kernel/lwevent.o
 .bss           0x00000000        0x0 ./MQXLITE/kernel/lwevent.o
 .text._lwevent_create_internal
                0x00000000       0x80 ./MQXLITE/kernel/lwevent.o
 .text._lwevent_destroy_internal
                0x00000000       0xd0 ./MQXLITE/kernel/lwevent.o
 .text._lwevent_destroy
                0x00000000        0xc ./MQXLITE/kernel/lwevent.o
 .text._lwevent_clear
                0x00000000       0x44 ./MQXLITE/kernel/lwevent.o
 .text._lwevent_get_signalled
                0x00000000       0x10 ./MQXLITE/kernel/lwevent.o
 .text._lwevent_set_auto_clear
                0x00000000       0x40 ./MQXLITE/kernel/lwevent.o
 .text._lwevent_test
                0x00000000       0xd8 ./MQXLITE/kernel/lwevent.o
 .text._lwevent_wait_until
                0x00000000       0x10 ./MQXLITE/kernel/lwevent.o
 .text._lwevent_wait_ticks
                0x00000000       0x50 ./MQXLITE/kernel/lwevent.o
 .text          0x00000000        0x0 ./MQXLITE/kernel/klog.o
 .data          0x00000000        0x0 ./MQXLITE/kernel/klog.o
 .bss           0x00000000        0x0 ./MQXLITE/kernel/klog.o
 .debug_info    0x00000000       0x7d ./MQXLITE/kernel/klog.o
 .debug_abbrev  0x00000000       0x28 ./MQXLITE/kernel/klog.o
 .debug_aranges
                0x00000000       0x18 ./MQXLITE/kernel/klog.o
 .debug_macinfo
                0x00000000    0x3e67b ./MQXLITE/kernel/klog.o
 .debug_line    0x00000000      0x64b ./MQXLITE/kernel/klog.o
 .debug_str     0x00000000      0x12e ./MQXLITE/kernel/klog.o
 .comment       0x00000000       0x7a ./MQXLITE/kernel/klog.o
 .ARM.attributes
                0x00000000       0x31 ./MQXLITE/kernel/klog.o
 .text          0x00000000        0x0 ./MQXLITE/kernel/int.o
 .data          0x00000000        0x0 ./MQXLITE/kernel/int.o
 .bss           0x00000000        0x0 ./MQXLITE/kernel/int.o
 .text._int_get_default_isr
                0x00000000        0xc ./MQXLITE/kernel/int.o
 .text._int_get_exception_handler
                0x00000000       0x40 ./MQXLITE/kernel/int.o
 .text._int_get_isr
                0x00000000       0x3c ./MQXLITE/kernel/int.o
 .text._int_get_isr_depth
                0x00000000        0xc ./MQXLITE/kernel/int.o
 .text._int_install_default_isr
                0x00000000       0x78 ./MQXLITE/kernel/int.o
 .text._int_install_exception_isr
                0x00000000       0x84 ./MQXLITE/kernel/int.o
 .text._int_install_unexpected_isr
                0x00000000       0x80 ./MQXLITE/kernel/int.o
 .text._int_set_exception_handler
                0x00000000       0x40 ./MQXLITE/kernel/int.o
 .text._int_set_isr_data
                0x00000000       0x40 ./MQXLITE/kernel/int.o
 .text          0x00000000        0x0 ./MQXLITE/kernel/idletask.o
 .data          0x00000000        0x0 ./MQXLITE/kernel/idletask.o
 .bss           0x00000000        0x0 ./MQXLITE/kernel/idletask.o
 .text          0x00000000        0x0 ./MQXLITE/psp/cortex_m/core/M0/dispatch.o
 .data          0x00000000        0x0 ./MQXLITE/psp/cortex_m/core/M0/dispatch.o
 .bss           0x00000000        0x0 ./MQXLITE/psp/cortex_m/core/M0/dispatch.o
 .data          0x00000000        0x0 ./MQXLITE/psp/cortex_m/core/M0/boot.o
 .bss           0x00000000        0x0 ./MQXLITE/psp/cortex_m/core/M0/boot.o
 .text          0x00000000        0x0 ./MQXLITE/psp/cortex_m/stack_st.o
 .data          0x00000000        0x0 ./MQXLITE/psp/cortex_m/stack_st.o
 .bss           0x00000000        0x0 ./MQXLITE/psp/cortex_m/stack_st.o
 .text._psp_get_stack_start
                0x00000000        0x8 ./MQXLITE/psp/cortex_m/stack_st.o
 .debug_info    0x00000000      0x607 ./MQXLITE/psp/cortex_m/stack_st.o
 .debug_abbrev  0x00000000       0xf8 ./MQXLITE/psp/cortex_m/stack_st.o
 .debug_loc     0x00000000       0x13 ./MQXLITE/psp/cortex_m/stack_st.o
 .debug_aranges
                0x00000000       0x20 ./MQXLITE/psp/cortex_m/stack_st.o
 .debug_macinfo
                0x00000000    0x3e67b ./MQXLITE/psp/cortex_m/stack_st.o
 .debug_line    0x00000000      0x668 ./MQXLITE/psp/cortex_m/stack_st.o
 .debug_str     0x00000000      0x517 ./MQXLITE/psp/cortex_m/stack_st.o
 .comment       0x00000000       0x7a ./MQXLITE/psp/cortex_m/stack_st.o
 .ARM.attributes
                0x00000000       0x31 ./MQXLITE/psp/cortex_m/stack_st.o
 .debug_frame   0x00000000       0x20 ./MQXLITE/psp/cortex_m/stack_st.o
 .text          0x00000000        0x0 ./MQXLITE/psp/cortex_m/stack_de.o
 .data          0x00000000        0x0 ./MQXLITE/psp/cortex_m/stack_de.o
 .bss           0x00000000        0x0 ./MQXLITE/psp/cortex_m/stack_de.o
 .text          0x00000000        0x0 ./MQXLITE/psp/cortex_m/stack_bu.o
 .data          0x00000000        0x0 ./MQXLITE/psp/cortex_m/stack_bu.o
 .bss           0x00000000        0x0 ./MQXLITE/psp/cortex_m/stack_bu.o
 .text          0x00000000        0x0 ./MQXLITE/psp/cortex_m/sc_irdyq.o
 .data          0x00000000        0x0 ./MQXLITE/psp/cortex_m/sc_irdyq.o
 .bss           0x00000000        0x0 ./MQXLITE/psp/cortex_m/sc_irdyq.o
 .text          0x00000000        0x0 ./MQXLITE/psp/cortex_m/psp_tisu.o
 .data          0x00000000        0x0 ./MQXLITE/psp/cortex_m/psp_tisu.o
 .bss           0x00000000        0x0 ./MQXLITE/psp/cortex_m/psp_tisu.o
 .text._psp_subtract_ticks
                0x00000000       0x40 ./MQXLITE/psp/cortex_m/psp_tisu.o
 .text._psp_subtract_ticks_int32
                0x00000000       0x64 ./MQXLITE/psp/cortex_m/psp_tisu.o
 .debug_info    0x00000000      0xc2b ./MQXLITE/psp/cortex_m/psp_tisu.o
 .debug_abbrev  0x00000000      0x16c ./MQXLITE/psp/cortex_m/psp_tisu.o
 .debug_loc     0x00000000       0xfe ./MQXLITE/psp/cortex_m/psp_tisu.o
 .debug_aranges
                0x00000000       0x28 ./MQXLITE/psp/cortex_m/psp_tisu.o
 .debug_macinfo
                0x00000000    0x3e67b ./MQXLITE/psp/cortex_m/psp_tisu.o
 .debug_line    0x00000000      0x698 ./MQXLITE/psp/cortex_m/psp_tisu.o
 .debug_str     0x00000000      0xb20 ./MQXLITE/psp/cortex_m/psp_tisu.o
 .comment       0x00000000       0x7a ./MQXLITE/psp/cortex_m/psp_tisu.o
 .ARM.attributes
                0x00000000       0x31 ./MQXLITE/psp/cortex_m/psp_tisu.o
 .debug_frame   0x00000000       0x50 ./MQXLITE/psp/cortex_m/psp_tisu.o
 .text          0x00000000        0x0 ./MQXLITE/psp/cortex_m/psp_tinm.o
 .data          0x00000000        0x0 ./MQXLITE/psp/cortex_m/psp_tinm.o
 .bss           0x00000000        0x0 ./MQXLITE/psp/cortex_m/psp_tinm.o
 .text          0x00000000        0x0 ./MQXLITE/psp/cortex_m/psp_tiad.o
 .data          0x00000000        0x0 ./MQXLITE/psp/cortex_m/psp_tiad.o
 .bss           0x00000000        0x0 ./MQXLITE/psp/cortex_m/psp_tiad.o
 .text          0x00000000        0x0 ./MQXLITE/psp/cortex_m/psp_supp.o
 .data          0x00000000        0x0 ./MQXLITE/psp/cortex_m/psp_supp.o
 .bss           0x00000000        0x0 ./MQXLITE/psp/cortex_m/psp_supp.o
 .text._psp_swap2byte
                0x00000000       0x10 ./MQXLITE/psp/cortex_m/psp_supp.o
 .text._psp_swap4byte
                0x00000000       0x20 ./MQXLITE/psp/cortex_m/psp_supp.o
 .debug_info    0x00000000      0x12c ./MQXLITE/psp/cortex_m/psp_supp.o
 .debug_abbrev  0x00000000       0x85 ./MQXLITE/psp/cortex_m/psp_supp.o
 .debug_loc     0x00000000       0x72 ./MQXLITE/psp/cortex_m/psp_supp.o
 .debug_aranges
                0x00000000       0x28 ./MQXLITE/psp/cortex_m/psp_supp.o
 .debug_macinfo
                0x00000000    0x3e67b ./MQXLITE/psp/cortex_m/psp_supp.o
 .debug_line    0x00000000      0x682 ./MQXLITE/psp/cortex_m/psp_supp.o
 .debug_str     0x00000000      0x171 ./MQXLITE/psp/cortex_m/psp_supp.o
 .comment       0x00000000       0x7a ./MQXLITE/psp/cortex_m/psp_supp.o
 .ARM.attributes
                0x00000000       0x31 ./MQXLITE/psp/cortex_m/psp_supp.o
 .debug_frame   0x00000000       0x40 ./MQXLITE/psp/cortex_m/psp_supp.o
 .text          0x00000000        0x0 ./MQXLITE/psp/cortex_m/psp_iinit.o
 .data          0x00000000        0x0 ./MQXLITE/psp/cortex_m/psp_iinit.o
 .bss           0x00000000        0x0 ./MQXLITE/psp/cortex_m/psp_iinit.o
 .text          0x00000000        0x0 ./MQXLITE/psp/cortex_m/mem_zero.o
 .data          0x00000000        0x0 ./MQXLITE/psp/cortex_m/mem_zero.o
 .bss           0x00000000        0x0 ./MQXLITE/psp/cortex_m/mem_zero.o
 .text          0x00000000        0x0 ./MQXLITE/psp/cortex_m/int_xcpt.o
 .data          0x00000000        0x0 ./MQXLITE/psp/cortex_m/int_xcpt.o
 .bss           0x00000000        0x0 ./MQXLITE/psp/cortex_m/int_xcpt.o
 .text._int_exception_isr
                0x00000000       0x90 ./MQXLITE/psp/cortex_m/int_xcpt.o
 .debug_info    0x00000000      0xb63 ./MQXLITE/psp/cortex_m/int_xcpt.o
 .debug_abbrev  0x00000000      0x126 ./MQXLITE/psp/cortex_m/int_xcpt.o
 .debug_loc     0x00000000      0x153 ./MQXLITE/psp/cortex_m/int_xcpt.o
 .debug_aranges
                0x00000000       0x20 ./MQXLITE/psp/cortex_m/int_xcpt.o
 .debug_macinfo
                0x00000000    0x3e67b ./MQXLITE/psp/cortex_m/int_xcpt.o
 .debug_line    0x00000000      0x693 ./MQXLITE/psp/cortex_m/int_xcpt.o
 .debug_str     0x00000000      0xb04 ./MQXLITE/psp/cortex_m/int_xcpt.o
 .comment       0x00000000       0x7a ./MQXLITE/psp/cortex_m/int_xcpt.o
 .ARM.attributes
                0x00000000       0x31 ./MQXLITE/psp/cortex_m/int_xcpt.o
 .debug_frame   0x00000000       0x38 ./MQXLITE/psp/cortex_m/int_xcpt.o
 .text          0x00000000        0x0 ./MQXLITE/psp/cortex_m/int_vtab.o
 .data          0x00000000        0x0 ./MQXLITE/psp/cortex_m/int_vtab.o
 .bss           0x00000000        0x0 ./MQXLITE/psp/cortex_m/int_vtab.o
 .text          0x00000000        0x0 ./MQXLITE/psp/cortex_m/int_unx.o
 .data          0x00000000        0x0 ./MQXLITE/psp/cortex_m/int_unx.o
 .bss           0x00000000        0x0 ./MQXLITE/psp/cortex_m/int_unx.o
 .text._int_unexpected_isr
                0x00000000       0x40 ./MQXLITE/psp/cortex_m/int_unx.o
 .debug_info    0x00000000      0xb49 ./MQXLITE/psp/cortex_m/int_unx.o
 .debug_abbrev  0x00000000      0x13e ./MQXLITE/psp/cortex_m/int_unx.o
 .debug_loc     0x00000000       0x8e ./MQXLITE/psp/cortex_m/int_unx.o
 .debug_aranges
                0x00000000       0x20 ./MQXLITE/psp/cortex_m/int_unx.o
 .debug_macinfo
                0x00000000    0x3e67b ./MQXLITE/psp/cortex_m/int_unx.o
 .debug_line    0x00000000      0x681 ./MQXLITE/psp/cortex_m/int_unx.o
 .debug_str     0x00000000      0xae6 ./MQXLITE/psp/cortex_m/int_unx.o
 .comment       0x00000000       0x7a ./MQXLITE/psp/cortex_m/int_unx.o
 .ARM.attributes
                0x00000000       0x31 ./MQXLITE/psp/cortex_m/int_unx.o
 .debug_frame   0x00000000       0x28 ./MQXLITE/psp/cortex_m/int_unx.o
 .text          0x00000000        0x0 ./MQXLITE/psp/cortex_m/int_pvta.o
 .data          0x00000000        0x0 ./MQXLITE/psp/cortex_m/int_pvta.o
 .bss           0x00000000        0x0 ./MQXLITE/psp/cortex_m/int_pvta.o
 .text._int_get_previous_vector_table
                0x00000000       0x10 ./MQXLITE/psp/cortex_m/int_pvta.o
 .debug_info    0x00000000      0xb08 ./MQXLITE/psp/cortex_m/int_pvta.o
 .debug_abbrev  0x00000000      0x119 ./MQXLITE/psp/cortex_m/int_pvta.o
 .debug_loc     0x00000000       0x14 ./MQXLITE/psp/cortex_m/int_pvta.o
 .debug_aranges
                0x00000000       0x20 ./MQXLITE/psp/cortex_m/int_pvta.o
 .debug_macinfo
                0x00000000    0x3e67b ./MQXLITE/psp/cortex_m/int_pvta.o
 .debug_line    0x00000000      0x666 ./MQXLITE/psp/cortex_m/int_pvta.o
 .debug_str     0x00000000      0xac5 ./MQXLITE/psp/cortex_m/int_pvta.o
 .comment       0x00000000       0x7a ./MQXLITE/psp/cortex_m/int_pvta.o
 .ARM.attributes
                0x00000000       0x31 ./MQXLITE/psp/cortex_m/int_pvta.o
 .debug_frame   0x00000000       0x20 ./MQXLITE/psp/cortex_m/int_pvta.o
 .text          0x00000000        0x0 ./MQXLITE/psp/cortex_m/int_kisr.o
 .data          0x00000000        0x0 ./MQXLITE/psp/cortex_m/int_kisr.o
 .bss           0x00000000        0x0 ./MQXLITE/psp/cortex_m/int_kisr.o
 .text._int_install_kernel_isr
                0x00000000        0xc ./MQXLITE/psp/cortex_m/int_kisr.o
 .debug_info    0x00000000       0xe0 ./MQXLITE/psp/cortex_m/int_kisr.o
 .debug_abbrev  0x00000000       0x72 ./MQXLITE/psp/cortex_m/int_kisr.o
 .debug_loc     0x00000000       0x46 ./MQXLITE/psp/cortex_m/int_kisr.o
 .debug_aranges
                0x00000000       0x20 ./MQXLITE/psp/cortex_m/int_kisr.o
 .debug_macinfo
                0x00000000    0x3e67b ./MQXLITE/psp/cortex_m/int_kisr.o
 .debug_line    0x00000000      0x669 ./MQXLITE/psp/cortex_m/int_kisr.o
 .debug_str     0x00000000      0x183 ./MQXLITE/psp/cortex_m/int_kisr.o
 .comment       0x00000000       0x7a ./MQXLITE/psp/cortex_m/int_kisr.o
 .ARM.attributes
                0x00000000       0x31 ./MQXLITE/psp/cortex_m/int_kisr.o
 .debug_frame   0x00000000       0x28 ./MQXLITE/psp/cortex_m/int_kisr.o
 .text          0x00000000        0x0 ./MQXLITE/psp/cortex_m/int_inst.o
 .data          0x00000000        0x0 ./MQXLITE/psp/cortex_m/int_inst.o
 .bss           0x00000000        0x0 ./MQXLITE/psp/cortex_m/int_inst.o
 .text          0x00000000        0x0 ./MQXLITE/psp/cortex_m/int_gkis.o
 .data          0x00000000        0x0 ./MQXLITE/psp/cortex_m/int_gkis.o
 .bss           0x00000000        0x0 ./MQXLITE/psp/cortex_m/int_gkis.o
 .text._int_get_kernel_isr
                0x00000000       0x24 ./MQXLITE/psp/cortex_m/int_gkis.o
 .debug_info    0x00000000      0x3db ./MQXLITE/psp/cortex_m/int_gkis.o
 .debug_abbrev  0x00000000      0x122 ./MQXLITE/psp/cortex_m/int_gkis.o
 .debug_loc     0x00000000       0x67 ./MQXLITE/psp/cortex_m/int_gkis.o
 .debug_aranges
                0x00000000       0x20 ./MQXLITE/psp/cortex_m/int_gkis.o
 .debug_macinfo
                0x00000000    0x3e67b ./MQXLITE/psp/cortex_m/int_gkis.o
 .debug_line    0x00000000      0x675 ./MQXLITE/psp/cortex_m/int_gkis.o
 .debug_str     0x00000000      0x2dc ./MQXLITE/psp/cortex_m/int_gkis.o
 .comment       0x00000000       0x7a ./MQXLITE/psp/cortex_m/int_gkis.o
 .ARM.attributes
                0x00000000       0x31 ./MQXLITE/psp/cortex_m/int_gkis.o
 .debug_frame   0x00000000       0x28 ./MQXLITE/psp/cortex_m/int_gkis.o
 .text          0x00000000        0x0 ./MQXLITE/psp/cortex_m/cortex.o
 .data          0x00000000        0x0 ./MQXLITE/psp/cortex_m/cortex.o
 .bss           0x00000000        0x0 ./MQXLITE/psp/cortex_m/cortex.o
 .text._cortex_int_init
                0x00000000       0x7c ./MQXLITE/psp/cortex_m/cortex.o
 .text._cortex_int_enable
                0x00000000       0x28 ./MQXLITE/psp/cortex_m/cortex.o
 .text._cortex_int_disable
                0x00000000       0x28 ./MQXLITE/psp/cortex_m/cortex.o
 .debug_info    0x00000000      0x4d9 ./MQXLITE/psp/cortex_m/cortex.o
 .debug_abbrev  0x00000000      0x193 ./MQXLITE/psp/cortex_m/cortex.o
 .debug_loc     0x00000000      0x159 ./MQXLITE/psp/cortex_m/cortex.o
 .debug_aranges
                0x00000000       0x30 ./MQXLITE/psp/cortex_m/cortex.o
 .debug_macinfo
                0x00000000    0x3e67f ./MQXLITE/psp/cortex_m/cortex.o
 .debug_line    0x00000000      0x6bd ./MQXLITE/psp/cortex_m/cortex.o
 .debug_str     0x00000000      0x2f4 ./MQXLITE/psp/cortex_m/cortex.o
 .comment       0x00000000       0x7a ./MQXLITE/psp/cortex_m/cortex.o
 .ARM.attributes
                0x00000000       0x31 ./MQXLITE/psp/cortex_m/cortex.o
 .debug_frame   0x00000000       0x64 ./MQXLITE/psp/cortex_m/cortex.o
 .text          0x00000000        0x0 ./Project_Settings/Startup_Code/__arm_start.o
 .data          0x00000000        0x0 ./Project_Settings/Startup_Code/__arm_start.o
 .bss           0x00000000        0x0 ./Project_Settings/Startup_Code/__arm_start.o
 .text.__iar_program_start
                0x00000000        0x4 ./Project_Settings/Startup_Code/__arm_start.o
 .text          0x00000000        0x0 ./Project_Settings/Startup_Code/__arm_end.o
 .data          0x00000000        0x0 ./Project_Settings/Startup_Code/__arm_end.o
 .bss           0x00000000        0x0 ./Project_Settings/Startup_Code/__arm_end.o
 .text          0x00000000        0x0 ./Sources/user_tasks.o
 .data          0x00000000        0x0 ./Sources/user_tasks.o
 .bss           0x00000000        0x0 ./Sources/user_tasks.o
 .bss.lax       0x00000000        0x4 ./Sources/user_tasks.o
 .bss.Dk        0x00000000        0x4 ./Sources/user_tasks.o
 .text          0x00000000        0x0 ./Sources/tasks_func.o
 .data          0x00000000        0x0 ./Sources/tasks_func.o
 .bss           0x00000000        0x0 ./Sources/tasks_func.o
 .text.ApplyAccelHAL
                0x00000000       0x14 ./Sources/tasks_func.o
 .text.ApplyMagHAL
                0x00000000       0x18 ./Sources/tasks_func.o
 .text.ApplyGyroHAL
                0x00000000       0x1c ./Sources/tasks_func.o
 .bss.iBluetoothSensorPacketWaiting
                0x00000000        0x1 ./Sources/tasks_func.o
 .text          0x00000000        0x0 ./Sources/sa_mtb.o
 .data          0x00000000        0x0 ./Sources/sa_mtb.o
 .bss           0x00000000        0x0 ./Sources/sa_mtb.o
 .debug_info    0x00000000       0x21 ./Sources/sa_mtb.o
 .debug_abbrev  0x00000000       0x12 ./Sources/sa_mtb.o
 .debug_aranges
                0x00000000       0x18 ./Sources/sa_mtb.o
 .debug_macinfo
                0x00000000     0x24f3 ./Sources/sa_mtb.o
 .debug_line    0x00000000       0xaf ./Sources/sa_mtb.o
 .debug_str     0x00000000       0x97 ./Sources/sa_mtb.o
 .comment       0x00000000       0x7a ./Sources/sa_mtb.o
 .ARM.attributes
                0x00000000       0x31 ./Sources/sa_mtb.o
 .text          0x00000000        0x0 ./Sources/mqx_tasks.o
 .data          0x00000000        0x0 ./Sources/mqx_tasks.o
 .bss           0x00000000        0x0 ./Sources/mqx_tasks.o
 .text          0x00000000        0x0 ./Sources/main.o
 .data          0x00000000        0x0 ./Sources/main.o
 .bss           0x00000000        0x0 ./Sources/main.o
 .text          0x00000000        0x0 ./Sources/FSL_utils.o
 .data          0x00000000        0x0 ./Sources/FSL_utils.o
 .bss           0x00000000        0x0 ./Sources/FSL_utils.o
 .text.FXAS21002_Init
                0x00000000       0xd4 ./Sources/FSL_utils.o
 .text.MMA8652_Init
                0x00000000      0x104 ./Sources/FSL_utils.o
 .text.MAG3110_Init
                0x00000000       0xdc ./Sources/FSL_utils.o
 .text.FXAS21002_ReadData
                0x00000000      0x100 ./Sources/FSL_utils.o
 .text.MMA8652_ReadData
                0x00000000       0xc0 ./Sources/FSL_utils.o
 .text.MAG3110_ReadData
                0x00000000       0xcc ./Sources/FSL_utils.o
 .text.BlueRadios_Init
                0x00000000       0x48 ./Sources/FSL_utils.o
 .text.sBufAppendItem
                0x00000000      0x108 ./Sources/FSL_utils.o
 .text.CreateAndSendBluetoothPacketsViaUART
                0x00000000     0x260c ./Sources/FSL_utils.o
 .rodata.CreateAndSendBluetoothPacketsViaUART
                0x00000000       0x44 ./Sources/FSL_utils.o
 .rodata.str1.4
                0x00000000        0xc ./Sources/FSL_utils.o
 .text          0x00000000        0x0 ./Sources/Events.o
 .data          0x00000000        0x0 ./Sources/Events.o
 .bss           0x00000000        0x0 ./Sources/Events.o
 .text.I2C_OnError
                0x00000000        0x4 ./Sources/Events.o
 .text          0x00000000        0x0 D:/xuser00/Ansoft/XSFK_KL25Z/XSFK_KL25Z/Library\libFusion.a(baranski_kalman.o)
 .data          0x00000000        0x0 D:/xuser00/Ansoft/XSFK_KL25Z/XSFK_KL25Z/Library\libFusion.a(baranski_kalman.o)
 .bss           0x00000000        0x0 D:/xuser00/Ansoft/XSFK_KL25Z/XSFK_KL25Z/Library\libFusion.a(baranski_kalman.o)
 .text.fInit_6DOF_GB_KALMAN
                0x00000000      0x1a4 D:/xuser00/Ansoft/XSFK_KL25Z/XSFK_KL25Z/Library\libFusion.a(baranski_kalman.o)
 .text.fRun_6DOF_GB_KALMAN
                0x00000000     0x15fc D:/xuser00/Ansoft/XSFK_KL25Z/XSFK_KL25Z/Library\libFusion.a(baranski_kalman.o)
 .text.get_silicon_signature
                0x00000000       0x14 D:/xuser00/Ansoft/XSFK_KL25Z/XSFK_KL25Z/Library\libFusion.a(baranski_kalman.o)
 .text.compute  0x00000000       0x3c D:/xuser00/Ansoft/XSFK_KL25Z/XSFK_KL25Z/Library\libFusion.a(baranski_kalman.o)
 .text          0x00000000        0x0 D:/xuser00/Ansoft/XSFK_KL25Z/XSFK_KL25Z/Library\libFusion.a(matrix.o)
 .data          0x00000000        0x0 D:/xuser00/Ansoft/XSFK_KL25Z/XSFK_KL25Z/Library\libFusion.a(matrix.o)
 .bss           0x00000000        0x0 D:/xuser00/Ansoft/XSFK_KL25Z/XSFK_KL25Z/Library\libFusion.a(matrix.o)
 .text.fmatrixAeqI
                0x00000000       0x68 D:/xuser00/Ansoft/XSFK_KL25Z/XSFK_KL25Z/Library\libFusion.a(matrix.o)
 .text.f3x3matrixAeqBxC
                0x00000000      0x1a8 D:/xuser00/Ansoft/XSFK_KL25Z/XSFK_KL25Z/Library\libFusion.a(matrix.o)
 .text.f3x3matrixAeqBxTrC
                0x00000000      0x1a8 D:/xuser00/Ansoft/XSFK_KL25Z/XSFK_KL25Z/Library\libFusion.a(matrix.o)
 .text.f3x3matrixAeqBxA
                0x00000000      0x21c D:/xuser00/Ansoft/XSFK_KL25Z/XSFK_KL25Z/Library\libFusion.a(matrix.o)
 .text.fmatrixAeqRenormRotA
                0x00000000      0x1ec D:/xuser00/Ansoft/XSFK_KL25Z/XSFK_KL25Z/Library\libFusion.a(matrix.o)
 .text          0x00000000        0x0 D:/xuser00/Ansoft/XSFK_KL25Z/XSFK_KL25Z/Library\libFusion.a(magnetic.o)
 .data          0x00000000        0x0 D:/xuser00/Ansoft/XSFK_KL25Z/XSFK_KL25Z/Library\libFusion.a(magnetic.o)
 .bss           0x00000000        0x0 D:/xuser00/Ansoft/XSFK_KL25Z/XSFK_KL25Z/Library\libFusion.a(magnetic.o)
 .text          0x00000000        0x0 D:/xuser00/Ansoft/XSFK_KL25Z/XSFK_KL25Z/Library\libFusion.a(approximations.o)
 .data          0x00000000        0x0 D:/xuser00/Ansoft/XSFK_KL25Z/XSFK_KL25Z/Library\libFusion.a(approximations.o)
 .bss           0x00000000        0x0 D:/xuser00/Ansoft/XSFK_KL25Z/XSFK_KL25Z/Library\libFusion.a(approximations.o)
 .text.fatan_15deg
                0x00000000       0x40 D:/xuser00/Ansoft/XSFK_KL25Z/XSFK_KL25Z/Library\libFusion.a(approximations.o)
 .text          0x00000000        0x0 D:/xuser00/Ansoft/XSFK_KL25Z/XSFK_KL25Z/Library\libFusion.a(orientation.o)
 .data          0x00000000        0x0 D:/xuser00/Ansoft/XSFK_KL25Z/XSFK_KL25Z/Library\libFusion.a(orientation.o)
 .bss           0x00000000        0x0 D:/xuser00/Ansoft/XSFK_KL25Z/XSFK_KL25Z/Library\libFusion.a(orientation.o)
 .text.fRotationMatrixFromRotationVectorDeg
                0x00000000      0x220 D:/xuser00/Ansoft/XSFK_KL25Z/XSFK_KL25Z/Library\libFusion.a(orientation.o)
 .text.fRotationVectorDegFromRotationMatrix
                0x00000000      0x224 D:/xuser00/Ansoft/XSFK_KL25Z/XSFK_KL25Z/Library\libFusion.a(orientation.o)
 .text.fLPFOrientationMatrix
                0x00000000      0x140 D:/xuser00/Ansoft/XSFK_KL25Z/XSFK_KL25Z/Library\libFusion.a(orientation.o)
 .text.qAxB     0x00000000      0x13c D:/xuser00/Ansoft/XSFK_KL25Z/XSFK_KL25Z/Library\libFusion.a(orientation.o)
 .text.qconjgAxB
                0x00000000      0x13c D:/xuser00/Ansoft/XSFK_KL25Z/XSFK_KL25Z/Library\libFusion.a(orientation.o)
 .text          0x00000000        0x0 C:/Appz/Freescale/CW MCU v10.6/MCU/ARM_GCC_Support/ewl/lib/armv6-m\libc.a(sprintf.o)
 .data          0x00000000        0x0 C:/Appz/Freescale/CW MCU v10.6/MCU/ARM_GCC_Support/ewl/lib/armv6-m\libc.a(sprintf.o)
 .bss           0x00000000        0x0 C:/Appz/Freescale/CW MCU v10.6/MCU/ARM_GCC_Support/ewl/lib/armv6-m\libc.a(sprintf.o)
 .text          0x00000000        0x0 C:/Appz/Freescale/CW MCU v10.6/MCU/ARM_GCC_Support/ewl/lib/armv6-m\libc.a(vsnprintf.o)
 .data          0x00000000        0x0 C:/Appz/Freescale/CW MCU v10.6/MCU/ARM_GCC_Support/ewl/lib/armv6-m\libc.a(vsnprintf.o)
 .bss           0x00000000        0x0 C:/Appz/Freescale/CW MCU v10.6/MCU/ARM_GCC_Support/ewl/lib/armv6-m\libc.a(vsnprintf.o)
 .text          0x00000000        0x0 C:/Appz/Freescale/CW MCU v10.6/MCU/ARM_GCC_Support/ewl/lib/armv6-m\libc.a(exit.o)
 .data          0x00000000        0x0 C:/Appz/Freescale/CW MCU v10.6/MCU/ARM_GCC_Support/ewl/lib/armv6-m\libc.a(exit.o)
 .bss           0x00000000        0x0 C:/Appz/Freescale/CW MCU v10.6/MCU/ARM_GCC_Support/ewl/lib/armv6-m\libc.a(exit.o)
 .text          0x00000000        0x0 C:/Appz/Freescale/CW MCU v10.6/MCU/ARM_GCC_Support/ewl/lib/armv6-m\libc.a(memcpy.o)
 .data          0x00000000        0x0 C:/Appz/Freescale/CW MCU v10.6/MCU/ARM_GCC_Support/ewl/lib/armv6-m\libc.a(memcpy.o)
 .bss           0x00000000        0x0 C:/Appz/Freescale/CW MCU v10.6/MCU/ARM_GCC_Support/ewl/lib/armv6-m\libc.a(memcpy.o)
 .text          0x00000000        0x0 C:/Appz/Freescale/CW MCU v10.6/MCU/ARM_GCC_Support/ewl/lib/armv6-m\libc.a(memset.o)
 .data          0x00000000        0x0 C:/Appz/Freescale/CW MCU v10.6/MCU/ARM_GCC_Support/ewl/lib/armv6-m\libc.a(memset.o)
 .bss           0x00000000        0x0 C:/Appz/Freescale/CW MCU v10.6/MCU/ARM_GCC_Support/ewl/lib/armv6-m\libc.a(memset.o)
 .text          0x00000000        0x0 C:/Appz/Freescale/CW MCU v10.6/MCU/ARM_GCC_Support/ewl/lib/armv6-m\libc.a(strncmp.o)
 .data          0x00000000        0x0 C:/Appz/Freescale/CW MCU v10.6/MCU/ARM_GCC_Support/ewl/lib/armv6-m\libc.a(strncmp.o)
 .bss           0x00000000        0x0 C:/Appz/Freescale/CW MCU v10.6/MCU/ARM_GCC_Support/ewl/lib/armv6-m\libc.a(strncmp.o)
 .text.strncmp  0x00000000       0x22 C:/Appz/Freescale/CW MCU v10.6/MCU/ARM_GCC_Support/ewl/lib/armv6-m\libc.a(strncmp.o)
 .debug_info    0x00000000      0x141 C:/Appz/Freescale/CW MCU v10.6/MCU/ARM_GCC_Support/ewl/lib/armv6-m\libc.a(strncmp.o)
 .debug_abbrev  0x00000000       0x98 C:/Appz/Freescale/CW MCU v10.6/MCU/ARM_GCC_Support/ewl/lib/armv6-m\libc.a(strncmp.o)
 .debug_loc     0x00000000       0xed C:/Appz/Freescale/CW MCU v10.6/MCU/ARM_GCC_Support/ewl/lib/armv6-m\libc.a(strncmp.o)
 .debug_aranges
                0x00000000       0x20 C:/Appz/Freescale/CW MCU v10.6/MCU/ARM_GCC_Support/ewl/lib/armv6-m\libc.a(strncmp.o)
 .debug_line    0x00000000       0x8d C:/Appz/Freescale/CW MCU v10.6/MCU/ARM_GCC_Support/ewl/lib/armv6-m\libc.a(strncmp.o)
 .debug_str     0x00000000      0x152 C:/Appz/Freescale/CW MCU v10.6/MCU/ARM_GCC_Support/ewl/lib/armv6-m\libc.a(strncmp.o)
 .comment       0x00000000       0x7a C:/Appz/Freescale/CW MCU v10.6/MCU/ARM_GCC_Support/ewl/lib/armv6-m\libc.a(strncmp.o)
 .ARM.attributes
                0x00000000       0x31 C:/Appz/Freescale/CW MCU v10.6/MCU/ARM_GCC_Support/ewl/lib/armv6-m\libc.a(strncmp.o)
 .debug_frame   0x00000000       0x2c C:/Appz/Freescale/CW MCU v10.6/MCU/ARM_GCC_Support/ewl/lib/armv6-m\libc.a(strncmp.o)
 .text          0x00000000        0x0 C:/Appz/Freescale/CW MCU v10.6/MCU/ARM_GCC_Support/ewl/lib/armv6-m\libc.a(printformat_fp.o)
 .data          0x00000000        0x0 C:/Appz/Freescale/CW MCU v10.6/MCU/ARM_GCC_Support/ewl/lib/armv6-m\libc.a(printformat_fp.o)
 .bss           0x00000000        0x0 C:/Appz/Freescale/CW MCU v10.6/MCU/ARM_GCC_Support/ewl/lib/armv6-m\libc.a(printformat_fp.o)
 .text          0x00000000        0x0 C:/Appz/Freescale/CW MCU v10.6/MCU/ARM_GCC_Support/ewl/lib/armv6-m\libc.a(scanformat_fp.o)
 .data          0x00000000        0x0 C:/Appz/Freescale/CW MCU v10.6/MCU/ARM_GCC_Support/ewl/lib/armv6-m\libc.a(scanformat_fp.o)
 .bss           0x00000000        0x0 C:/Appz/Freescale/CW MCU v10.6/MCU/ARM_GCC_Support/ewl/lib/armv6-m\libc.a(scanformat_fp.o)
 .text          0x00000000        0x0 C:/Appz/Freescale/CW MCU v10.6/MCU/ARM_GCC_Support/ewl/lib/armv6-m\libc.a(ctype_aeabi.o)
 .data          0x00000000        0x0 C:/Appz/Freescale/CW MCU v10.6/MCU/ARM_GCC_Support/ewl/lib/armv6-m\libc.a(ctype_aeabi.o)
 .bss           0x00000000        0x0 C:/Appz/Freescale/CW MCU v10.6/MCU/ARM_GCC_Support/ewl/lib/armv6-m\libc.a(ctype_aeabi.o)
 .text.isalnum  0x00000000       0x1c C:/Appz/Freescale/CW MCU v10.6/MCU/ARM_GCC_Support/ewl/lib/armv6-m\libc.a(ctype_aeabi.o)
 .text.iscntrl  0x00000000       0x20 C:/Appz/Freescale/CW MCU v10.6/MCU/ARM_GCC_Support/ewl/lib/armv6-m\libc.a(ctype_aeabi.o)
 .text.isdigit  0x00000000        0xe C:/Appz/Freescale/CW MCU v10.6/MCU/ARM_GCC_Support/ewl/lib/armv6-m\libc.a(ctype_aeabi.o)
 .text.isgraph  0x00000000       0x1c C:/Appz/Freescale/CW MCU v10.6/MCU/ARM_GCC_Support/ewl/lib/armv6-m\libc.a(ctype_aeabi.o)
 .text.islower  0x00000000       0x20 C:/Appz/Freescale/CW MCU v10.6/MCU/ARM_GCC_Support/ewl/lib/armv6-m\libc.a(ctype_aeabi.o)
 .text.isprint  0x00000000       0x1c C:/Appz/Freescale/CW MCU v10.6/MCU/ARM_GCC_Support/ewl/lib/armv6-m\libc.a(ctype_aeabi.o)
 .text.ispunct  0x00000000       0x20 C:/Appz/Freescale/CW MCU v10.6/MCU/ARM_GCC_Support/ewl/lib/armv6-m\libc.a(ctype_aeabi.o)
 .text.isblank  0x00000000       0x28 C:/Appz/Freescale/CW MCU v10.6/MCU/ARM_GCC_Support/ewl/lib/armv6-m\libc.a(ctype_aeabi.o)
 .text.tolower  0x00000000        0xe C:/Appz/Freescale/CW MCU v10.6/MCU/ARM_GCC_Support/ewl/lib/armv6-m\libc.a(ctype_aeabi.o)
 .text          0x00000000        0x0 C:/Appz/Freescale/CW MCU v10.6/MCU/ARM_GCC_Support/ewl/lib/armv6-m\libc.a(__strtold.o)
 .data          0x00000000        0x0 C:/Appz/Freescale/CW MCU v10.6/MCU/ARM_GCC_Support/ewl/lib/armv6-m\libc.a(__strtold.o)
 .bss           0x00000000        0x0 C:/Appz/Freescale/CW MCU v10.6/MCU/ARM_GCC_Support/ewl/lib/armv6-m\libc.a(__strtold.o)
 .text.strtold  0x00000000       0x4c C:/Appz/Freescale/CW MCU v10.6/MCU/ARM_GCC_Support/ewl/lib/armv6-m\libc.a(__strtold.o)
 .text.strtod   0x00000000       0x4c C:/Appz/Freescale/CW MCU v10.6/MCU/ARM_GCC_Support/ewl/lib/armv6-m\libc.a(__strtold.o)
 .text.atof     0x00000000        0xa C:/Appz/Freescale/CW MCU v10.6/MCU/ARM_GCC_Support/ewl/lib/armv6-m\libc.a(__strtold.o)
 .text          0x00000000        0x0 C:/Appz/Freescale/CW MCU v10.6/MCU/ARM_GCC_Support/ewl/lib/armv6-m\libc.a(vsscanf.o)
 .data          0x00000000        0x0 C:/Appz/Freescale/CW MCU v10.6/MCU/ARM_GCC_Support/ewl/lib/armv6-m\libc.a(vsscanf.o)
 .bss           0x00000000        0x0 C:/Appz/Freescale/CW MCU v10.6/MCU/ARM_GCC_Support/ewl/lib/armv6-m\libc.a(vsscanf.o)
 .text.__StringRead
                0x00000000       0x3c C:/Appz/Freescale/CW MCU v10.6/MCU/ARM_GCC_Support/ewl/lib/armv6-m\libc.a(vsscanf.o)
 .text.vsscanf  0x00000000       0x30 C:/Appz/Freescale/CW MCU v10.6/MCU/ARM_GCC_Support/ewl/lib/armv6-m\libc.a(vsscanf.o)
 .debug_info    0x00000000      0x253 C:/Appz/Freescale/CW MCU v10.6/MCU/ARM_GCC_Support/ewl/lib/armv6-m\libc.a(vsscanf.o)
 .debug_abbrev  0x00000000      0x15f C:/Appz/Freescale/CW MCU v10.6/MCU/ARM_GCC_Support/ewl/lib/armv6-m\libc.a(vsscanf.o)
 .debug_loc     0x00000000      0x16c C:/Appz/Freescale/CW MCU v10.6/MCU/ARM_GCC_Support/ewl/lib/armv6-m\libc.a(vsscanf.o)
 .debug_aranges
                0x00000000       0x28 C:/Appz/Freescale/CW MCU v10.6/MCU/ARM_GCC_Support/ewl/lib/armv6-m\libc.a(vsscanf.o)
 .debug_line    0x00000000       0xc8 C:/Appz/Freescale/CW MCU v10.6/MCU/ARM_GCC_Support/ewl/lib/armv6-m\libc.a(vsscanf.o)
 .debug_str     0x00000000      0x1e5 C:/Appz/Freescale/CW MCU v10.6/MCU/ARM_GCC_Support/ewl/lib/armv6-m\libc.a(vsscanf.o)
 .comment       0x00000000       0x7a C:/Appz/Freescale/CW MCU v10.6/MCU/ARM_GCC_Support/ewl/lib/armv6-m\libc.a(vsscanf.o)
 .ARM.attributes
                0x00000000       0x31 C:/Appz/Freescale/CW MCU v10.6/MCU/ARM_GCC_Support/ewl/lib/armv6-m\libc.a(vsscanf.o)
 .debug_frame   0x00000000       0x48 C:/Appz/Freescale/CW MCU v10.6/MCU/ARM_GCC_Support/ewl/lib/armv6-m\libc.a(vsscanf.o)
 .text          0x00000000        0x0 C:/Appz/Freescale/CW MCU v10.6/MCU/ARM_GCC_Support/ewl/lib/armv6-m\libc.a(__strtoul.o)
 .data          0x00000000        0x0 C:/Appz/Freescale/CW MCU v10.6/MCU/ARM_GCC_Support/ewl/lib/armv6-m\libc.a(__strtoul.o)
 .bss           0x00000000        0x0 C:/Appz/Freescale/CW MCU v10.6/MCU/ARM_GCC_Support/ewl/lib/armv6-m\libc.a(__strtoul.o)
 .text          0x00000000        0x0 C:/Appz/Freescale/CW MCU v10.6/MCU/ARM_GCC_Support/ewl/lib/armv6-m\libc.a(__filll_mem.o)
 .data          0x00000000        0x0 C:/Appz/Freescale/CW MCU v10.6/MCU/ARM_GCC_Support/ewl/lib/armv6-m\libc.a(__filll_mem.o)
 .bss           0x00000000        0x0 C:/Appz/Freescale/CW MCU v10.6/MCU/ARM_GCC_Support/ewl/lib/armv6-m\libc.a(__filll_mem.o)
 .text          0x00000000        0x0 C:/Appz/Freescale/CW MCU v10.6/MCU/ARM_GCC_Support/ewl/lib/armv6-m\libc.a(memchr.o)
 .data          0x00000000        0x0 C:/Appz/Freescale/CW MCU v10.6/MCU/ARM_GCC_Support/ewl/lib/armv6-m\libc.a(memchr.o)
 .bss           0x00000000        0x0 C:/Appz/Freescale/CW MCU v10.6/MCU/ARM_GCC_Support/ewl/lib/armv6-m\libc.a(memchr.o)
 .text          0x00000000        0x0 C:/Appz/Freescale/CW MCU v10.6/MCU/ARM_GCC_Support/ewl/lib/armv6-m\libc.a(strchr.o)
 .data          0x00000000        0x0 C:/Appz/Freescale/CW MCU v10.6/MCU/ARM_GCC_Support/ewl/lib/armv6-m\libc.a(strchr.o)
 .bss           0x00000000        0x0 C:/Appz/Freescale/CW MCU v10.6/MCU/ARM_GCC_Support/ewl/lib/armv6-m\libc.a(strchr.o)
 .text          0x00000000        0x0 C:/Appz/Freescale/CW MCU v10.6/MCU/ARM_GCC_Support/ewl/lib/armv6-m\libc.a(strcpy.o)
 .data          0x00000000        0x0 C:/Appz/Freescale/CW MCU v10.6/MCU/ARM_GCC_Support/ewl/lib/armv6-m\libc.a(strcpy.o)
 .bss           0x00000000        0x0 C:/Appz/Freescale/CW MCU v10.6/MCU/ARM_GCC_Support/ewl/lib/armv6-m\libc.a(strcpy.o)
 .text          0x00000000        0x0 C:/Appz/Freescale/CW MCU v10.6/MCU/ARM_GCC_Support/ewl/lib/armv6-m\libc.a(strlen.o)
 .data          0x00000000        0x0 C:/Appz/Freescale/CW MCU v10.6/MCU/ARM_GCC_Support/ewl/lib/armv6-m\libc.a(strlen.o)
 .bss           0x00000000        0x0 C:/Appz/Freescale/CW MCU v10.6/MCU/ARM_GCC_Support/ewl/lib/armv6-m\libc.a(strlen.o)
 .text          0x00000000        0x0 C:/Appz/Freescale/CW MCU v10.6/MCU/ARM_GCC_Support/ewl/lib/armv6-m\libc.a(errno.o)
 .data          0x00000000        0x0 C:/Appz/Freescale/CW MCU v10.6/MCU/ARM_GCC_Support/ewl/lib/armv6-m\libc.a(errno.o)
 .bss           0x00000000        0x0 C:/Appz/Freescale/CW MCU v10.6/MCU/ARM_GCC_Support/ewl/lib/armv6-m\libc.a(errno.o)
 .text          0x00000000        0x0 C:/Appz/Freescale/CW MCU v10.6/MCU/ARM_GCC_Support/ewl/lib/armv6-m\libm.a(ansi_fp.o)
 .data          0x00000000        0x0 C:/Appz/Freescale/CW MCU v10.6/MCU/ARM_GCC_Support/ewl/lib/armv6-m\libm.a(ansi_fp.o)
 .bss           0x00000000        0x0 C:/Appz/Freescale/CW MCU v10.6/MCU/ARM_GCC_Support/ewl/lib/armv6-m\libm.a(ansi_fp.o)
 .text          0x00000000        0x0 C:/Appz/Freescale/CW MCU v10.6/MCU/ARM_GCC_Support/ewl/lib/armv6-m\libm.a(float.o)
 .data          0x00000000        0x0 C:/Appz/Freescale/CW MCU v10.6/MCU/ARM_GCC_Support/ewl/lib/armv6-m\libm.a(float.o)
 .bss           0x00000000        0x0 C:/Appz/Freescale/CW MCU v10.6/MCU/ARM_GCC_Support/ewl/lib/armv6-m\libm.a(float.o)
 .data.__extended_tiny
                0x00000000        0x8 C:/Appz/Freescale/CW MCU v10.6/MCU/ARM_GCC_Support/ewl/lib/armv6-m\libm.a(float.o)
 .data.__double_epsilon
                0x00000000        0x8 C:/Appz/Freescale/CW MCU v10.6/MCU/ARM_GCC_Support/ewl/lib/armv6-m\libm.a(float.o)
 .data.__float_huge
                0x00000000        0x4 C:/Appz/Freescale/CW MCU v10.6/MCU/ARM_GCC_Support/ewl/lib/armv6-m\libm.a(float.o)
 .data.__float_min
                0x00000000        0x4 C:/Appz/Freescale/CW MCU v10.6/MCU/ARM_GCC_Support/ewl/lib/armv6-m\libm.a(float.o)
 .data.__float_max
                0x00000000        0x4 C:/Appz/Freescale/CW MCU v10.6/MCU/ARM_GCC_Support/ewl/lib/armv6-m\libm.a(float.o)
 .data.__float_epsilon
                0x00000000        0x4 C:/Appz/Freescale/CW MCU v10.6/MCU/ARM_GCC_Support/ewl/lib/armv6-m\libm.a(float.o)
 .data.__extended_nan
                0x00000000        0x8 C:/Appz/Freescale/CW MCU v10.6/MCU/ARM_GCC_Support/ewl/lib/armv6-m\libm.a(float.o)
 .data.__extended_epsilon
                0x00000000        0x8 C:/Appz/Freescale/CW MCU v10.6/MCU/ARM_GCC_Support/ewl/lib/armv6-m\libm.a(float.o)
 .data.__extended_huge
                0x00000000        0x8 C:/Appz/Freescale/CW MCU v10.6/MCU/ARM_GCC_Support/ewl/lib/armv6-m\libm.a(float.o)
 .data.__double_min
                0x00000000        0x8 C:/Appz/Freescale/CW MCU v10.6/MCU/ARM_GCC_Support/ewl/lib/armv6-m\libm.a(float.o)
 .data.__extended_min
                0x00000000        0x8 C:/Appz/Freescale/CW MCU v10.6/MCU/ARM_GCC_Support/ewl/lib/armv6-m\libm.a(float.o)
 .data.__double_tiny
                0x00000000        0x8 C:/Appz/Freescale/CW MCU v10.6/MCU/ARM_GCC_Support/ewl/lib/armv6-m\libm.a(float.o)
 .data.__double_max
                0x00000000        0x8 C:/Appz/Freescale/CW MCU v10.6/MCU/ARM_GCC_Support/ewl/lib/armv6-m\libm.a(float.o)
 .text          0x00000000        0x0 C:/Appz/Freescale/CW MCU v10.6/MCU/ARM_GCC_Support/ewl/lib/armv6-m\libm.a(math_api.o)
 .data          0x00000000        0x0 C:/Appz/Freescale/CW MCU v10.6/MCU/ARM_GCC_Support/ewl/lib/armv6-m\libm.a(math_api.o)
 .bss           0x00000000        0x0 C:/Appz/Freescale/CW MCU v10.6/MCU/ARM_GCC_Support/ewl/lib/armv6-m\libm.a(math_api.o)
 .text.__ewl_generic_count_bits32
                0x00000000       0x34 C:/Appz/Freescale/CW MCU v10.6/MCU/ARM_GCC_Support/ewl/lib/armv6-m\libm.a(math_api.o)
 .text.__ewl_generic_count_leading_zero32
                0x00000000       0x20 C:/Appz/Freescale/CW MCU v10.6/MCU/ARM_GCC_Support/ewl/lib/armv6-m\libm.a(math_api.o)
 .text.__ewl_generic_count_bits64
                0x00000000       0x7c C:/Appz/Freescale/CW MCU v10.6/MCU/ARM_GCC_Support/ewl/lib/armv6-m\libm.a(math_api.o)
 .text.__ewl_generic_count_leading_zero64
                0x00000000       0x4a C:/Appz/Freescale/CW MCU v10.6/MCU/ARM_GCC_Support/ewl/lib/armv6-m\libm.a(math_api.o)
 .text.__signbitf
                0x00000000        0x4 C:/Appz/Freescale/CW MCU v10.6/MCU/ARM_GCC_Support/ewl/lib/armv6-m\libm.a(math_api.o)
 .text.__ewl_relation
                0x00000000       0x56 C:/Appz/Freescale/CW MCU v10.6/MCU/ARM_GCC_Support/ewl/lib/armv6-m\libm.a(math_api.o)
 .text          0x00000000        0x0 C:/Appz/Freescale/CW MCU v10.6/MCU/ARM_GCC_Support/ewl/lib/armv6-m\libm.a(s_cosf.o)
 .data          0x00000000        0x0 C:/Appz/Freescale/CW MCU v10.6/MCU/ARM_GCC_Support/ewl/lib/armv6-m\libm.a(s_cosf.o)
 .bss           0x00000000        0x0 C:/Appz/Freescale/CW MCU v10.6/MCU/ARM_GCC_Support/ewl/lib/armv6-m\libm.a(s_cosf.o)
 .text.cosf     0x00000000       0x94 C:/Appz/Freescale/CW MCU v10.6/MCU/ARM_GCC_Support/ewl/lib/armv6-m\libm.a(s_cosf.o)
 .debug_info    0x00000000      0x158 C:/Appz/Freescale/CW MCU v10.6/MCU/ARM_GCC_Support/ewl/lib/armv6-m\libm.a(s_cosf.o)
 .debug_abbrev  0x00000000       0xbb C:/Appz/Freescale/CW MCU v10.6/MCU/ARM_GCC_Support/ewl/lib/armv6-m\libm.a(s_cosf.o)
 .debug_loc     0x00000000       0xe5 C:/Appz/Freescale/CW MCU v10.6/MCU/ARM_GCC_Support/ewl/lib/armv6-m\libm.a(s_cosf.o)
 .debug_aranges
                0x00000000       0x20 C:/Appz/Freescale/CW MCU v10.6/MCU/ARM_GCC_Support/ewl/lib/armv6-m\libm.a(s_cosf.o)
 .debug_line    0x00000000       0xd0 C:/Appz/Freescale/CW MCU v10.6/MCU/ARM_GCC_Support/ewl/lib/armv6-m\libm.a(s_cosf.o)
 .debug_str     0x00000000      0x159 C:/Appz/Freescale/CW MCU v10.6/MCU/ARM_GCC_Support/ewl/lib/armv6-m\libm.a(s_cosf.o)
 .comment       0x00000000       0x7a C:/Appz/Freescale/CW MCU v10.6/MCU/ARM_GCC_Support/ewl/lib/armv6-m\libm.a(s_cosf.o)
 .ARM.attributes
                0x00000000       0x31 C:/Appz/Freescale/CW MCU v10.6/MCU/ARM_GCC_Support/ewl/lib/armv6-m\libm.a(s_cosf.o)
 .debug_frame   0x00000000       0x30 C:/Appz/Freescale/CW MCU v10.6/MCU/ARM_GCC_Support/ewl/lib/armv6-m\libm.a(s_cosf.o)
 .text          0x00000000        0x0 C:/Appz/Freescale/CW MCU v10.6/MCU/ARM_GCC_Support/ewl/lib/armv6-m\libm.a(s_frexp.o)
 .data          0x00000000        0x0 C:/Appz/Freescale/CW MCU v10.6/MCU/ARM_GCC_Support/ewl/lib/armv6-m\libm.a(s_frexp.o)
 .bss           0x00000000        0x0 C:/Appz/Freescale/CW MCU v10.6/MCU/ARM_GCC_Support/ewl/lib/armv6-m\libm.a(s_frexp.o)
 .text          0x00000000        0x0 C:/Appz/Freescale/CW MCU v10.6/MCU/ARM_GCC_Support/ewl/lib/armv6-m\libm.a(s_sinf.o)
 .data          0x00000000        0x0 C:/Appz/Freescale/CW MCU v10.6/MCU/ARM_GCC_Support/ewl/lib/armv6-m\libm.a(s_sinf.o)
 .bss           0x00000000        0x0 C:/Appz/Freescale/CW MCU v10.6/MCU/ARM_GCC_Support/ewl/lib/armv6-m\libm.a(s_sinf.o)
 .text          0x00000000        0x0 C:/Appz/Freescale/CW MCU v10.6/MCU/ARM_GCC_Support/ewl/lib/armv6-m\libm.a(w_acosf.o)
 .data          0x00000000        0x0 C:/Appz/Freescale/CW MCU v10.6/MCU/ARM_GCC_Support/ewl/lib/armv6-m\libm.a(w_acosf.o)
 .bss           0x00000000        0x0 C:/Appz/Freescale/CW MCU v10.6/MCU/ARM_GCC_Support/ewl/lib/armv6-m\libm.a(w_acosf.o)
 .text          0x00000000        0x0 C:/Appz/Freescale/CW MCU v10.6/MCU/ARM_GCC_Support/ewl/lib/armv6-m\libm.a(w_pow.o)
 .data          0x00000000        0x0 C:/Appz/Freescale/CW MCU v10.6/MCU/ARM_GCC_Support/ewl/lib/armv6-m\libm.a(w_pow.o)
 .bss           0x00000000        0x0 C:/Appz/Freescale/CW MCU v10.6/MCU/ARM_GCC_Support/ewl/lib/armv6-m\libm.a(w_pow.o)
 .text          0x00000000        0x0 C:/Appz/Freescale/CW MCU v10.6/MCU/ARM_GCC_Support/ewl/lib/armv6-m\libm.a(w_powf.o)
 .data          0x00000000        0x0 C:/Appz/Freescale/CW MCU v10.6/MCU/ARM_GCC_Support/ewl/lib/armv6-m\libm.a(w_powf.o)
 .bss           0x00000000        0x0 C:/Appz/Freescale/CW MCU v10.6/MCU/ARM_GCC_Support/ewl/lib/armv6-m\libm.a(w_powf.o)
 .text          0x00000000        0x0 C:/Appz/Freescale/CW MCU v10.6/MCU/ARM_GCC_Support/ewl/lib/armv6-m\libm.a(w_sqrtf.o)
 .data          0x00000000        0x0 C:/Appz/Freescale/CW MCU v10.6/MCU/ARM_GCC_Support/ewl/lib/armv6-m\libm.a(w_sqrtf.o)
 .bss           0x00000000        0x0 C:/Appz/Freescale/CW MCU v10.6/MCU/ARM_GCC_Support/ewl/lib/armv6-m\libm.a(w_sqrtf.o)
 .text          0x00000000        0x0 C:/Appz/Freescale/CW MCU v10.6/MCU/ARM_GCC_Support/ewl/lib/armv6-m\libm.a(e_acosf.o)
 .data          0x00000000        0x0 C:/Appz/Freescale/CW MCU v10.6/MCU/ARM_GCC_Support/ewl/lib/armv6-m\libm.a(e_acosf.o)
 .bss           0x00000000        0x0 C:/Appz/Freescale/CW MCU v10.6/MCU/ARM_GCC_Support/ewl/lib/armv6-m\libm.a(e_acosf.o)
 .text          0x00000000        0x0 C:/Appz/Freescale/CW MCU v10.6/MCU/ARM_GCC_Support/ewl/lib/armv6-m\libm.a(e_pow.o)
 .data          0x00000000        0x0 C:/Appz/Freescale/CW MCU v10.6/MCU/ARM_GCC_Support/ewl/lib/armv6-m\libm.a(e_pow.o)
 .bss           0x00000000        0x0 C:/Appz/Freescale/CW MCU v10.6/MCU/ARM_GCC_Support/ewl/lib/armv6-m\libm.a(e_pow.o)
 .text          0x00000000        0x0 C:/Appz/Freescale/CW MCU v10.6/MCU/ARM_GCC_Support/ewl/lib/armv6-m\libm.a(e_powf.o)
 .data          0x00000000        0x0 C:/Appz/Freescale/CW MCU v10.6/MCU/ARM_GCC_Support/ewl/lib/armv6-m\libm.a(e_powf.o)
 .bss           0x00000000        0x0 C:/Appz/Freescale/CW MCU v10.6/MCU/ARM_GCC_Support/ewl/lib/armv6-m\libm.a(e_powf.o)
 .text          0x00000000        0x0 C:/Appz/Freescale/CW MCU v10.6/MCU/ARM_GCC_Support/ewl/lib/armv6-m\libm.a(e_rem_pio2f.o)
 .data          0x00000000        0x0 C:/Appz/Freescale/CW MCU v10.6/MCU/ARM_GCC_Support/ewl/lib/armv6-m\libm.a(e_rem_pio2f.o)
 .bss           0x00000000        0x0 C:/Appz/Freescale/CW MCU v10.6/MCU/ARM_GCC_Support/ewl/lib/armv6-m\libm.a(e_rem_pio2f.o)
 .text          0x00000000        0x0 C:/Appz/Freescale/CW MCU v10.6/MCU/ARM_GCC_Support/ewl/lib/armv6-m\libm.a(e_sqrtf.o)
 .data          0x00000000        0x0 C:/Appz/Freescale/CW MCU v10.6/MCU/ARM_GCC_Support/ewl/lib/armv6-m\libm.a(e_sqrtf.o)
 .bss           0x00000000        0x0 C:/Appz/Freescale/CW MCU v10.6/MCU/ARM_GCC_Support/ewl/lib/armv6-m\libm.a(e_sqrtf.o)
 .text          0x00000000        0x0 C:/Appz/Freescale/CW MCU v10.6/MCU/ARM_GCC_Support/ewl/lib/armv6-m\libm.a(k_cosf.o)
 .data          0x00000000        0x0 C:/Appz/Freescale/CW MCU v10.6/MCU/ARM_GCC_Support/ewl/lib/armv6-m\libm.a(k_cosf.o)
 .bss           0x00000000        0x0 C:/Appz/Freescale/CW MCU v10.6/MCU/ARM_GCC_Support/ewl/lib/armv6-m\libm.a(k_cosf.o)
 .text          0x00000000        0x0 C:/Appz/Freescale/CW MCU v10.6/MCU/ARM_GCC_Support/ewl/lib/armv6-m\libm.a(k_rem_pio2f.o)
 .data          0x00000000        0x0 C:/Appz/Freescale/CW MCU v10.6/MCU/ARM_GCC_Support/ewl/lib/armv6-m\libm.a(k_rem_pio2f.o)
 .bss           0x00000000        0x0 C:/Appz/Freescale/CW MCU v10.6/MCU/ARM_GCC_Support/ewl/lib/armv6-m\libm.a(k_rem_pio2f.o)
 .text          0x00000000        0x0 C:/Appz/Freescale/CW MCU v10.6/MCU/ARM_GCC_Support/ewl/lib/armv6-m\libm.a(k_sinf.o)
 .data          0x00000000        0x0 C:/Appz/Freescale/CW MCU v10.6/MCU/ARM_GCC_Support/ewl/lib/armv6-m\libm.a(k_sinf.o)
 .bss           0x00000000        0x0 C:/Appz/Freescale/CW MCU v10.6/MCU/ARM_GCC_Support/ewl/lib/armv6-m\libm.a(k_sinf.o)
 .text          0x00000000        0x0 C:/Appz/Freescale/CW MCU v10.6/MCU/ARM_GCC_Support/ewl/lib/armv6-m\libm.a(s_floorf.o)
 .data          0x00000000        0x0 C:/Appz/Freescale/CW MCU v10.6/MCU/ARM_GCC_Support/ewl/lib/armv6-m\libm.a(s_floorf.o)
 .bss           0x00000000        0x0 C:/Appz/Freescale/CW MCU v10.6/MCU/ARM_GCC_Support/ewl/lib/armv6-m\libm.a(s_floorf.o)
 .text          0x00000000        0x0 C:/Appz/Freescale/CW MCU v10.6/MCU/ARM_GCC_Support/ewl/lib/armv6-m\libm.a(s_scalbnf.o)
 .data          0x00000000        0x0 C:/Appz/Freescale/CW MCU v10.6/MCU/ARM_GCC_Support/ewl/lib/armv6-m\libm.a(s_scalbnf.o)
 .bss           0x00000000        0x0 C:/Appz/Freescale/CW MCU v10.6/MCU/ARM_GCC_Support/ewl/lib/armv6-m\libm.a(s_scalbnf.o)
 .text          0x00000000        0x0 C:/Appz/Freescale/CW MCU v10.6/MCU/ARM_GCC_Support/ewl/lib/armv6-m\libm.a(scalbn.o)
 .data          0x00000000        0x0 C:/Appz/Freescale/CW MCU v10.6/MCU/ARM_GCC_Support/ewl/lib/armv6-m\libm.a(scalbn.o)
 .bss           0x00000000        0x0 C:/Appz/Freescale/CW MCU v10.6/MCU/ARM_GCC_Support/ewl/lib/armv6-m\libm.a(scalbn.o)
 .text          0x00000000        0x0 C:/Appz/Freescale/CW MCU v10.6/MCU/ARM_GCC_Support/ewl/lib/armv6-m\libm.a(w_sqrt.o)
 .data          0x00000000        0x0 C:/Appz/Freescale/CW MCU v10.6/MCU/ARM_GCC_Support/ewl/lib/armv6-m\libm.a(w_sqrt.o)
 .bss           0x00000000        0x0 C:/Appz/Freescale/CW MCU v10.6/MCU/ARM_GCC_Support/ewl/lib/armv6-m\libm.a(w_sqrt.o)
 .text          0x00000000        0x0 C:/Appz/Freescale/CW MCU v10.6/MCU/ARM_GCC_Support/ewl/lib/armv6-m\libm.a(e_sqrt.o)
 .data          0x00000000        0x0 C:/Appz/Freescale/CW MCU v10.6/MCU/ARM_GCC_Support/ewl/lib/armv6-m\libm.a(e_sqrt.o)
 .bss           0x00000000        0x0 C:/Appz/Freescale/CW MCU v10.6/MCU/ARM_GCC_Support/ewl/lib/armv6-m\libm.a(e_sqrt.o)
 .text          0x00000000        0x0 C:/Appz/Freescale/CW MCU v10.6/MCU/ARM_GCC_Support/ewl/lib/armv6-m\libm.a(s_ldexp.o)
 .data          0x00000000        0x0 C:/Appz/Freescale/CW MCU v10.6/MCU/ARM_GCC_Support/ewl/lib/armv6-m\libm.a(s_ldexp.o)
 .bss           0x00000000        0x0 C:/Appz/Freescale/CW MCU v10.6/MCU/ARM_GCC_Support/ewl/lib/armv6-m\libm.a(s_ldexp.o)
 .data          0x00000000        0x0 c:/appz/freescale/cw mcu v10.6/cross_tools/arm-none-eabi-gcc-4_7_3/bin/../lib/gcc/arm-none-eabi/4.7.3/armv6-m\libgcc.a(_thumb1_case_sqi.o)
 .bss           0x00000000        0x0 c:/appz/freescale/cw mcu v10.6/cross_tools/arm-none-eabi-gcc-4_7_3/bin/../lib/gcc/arm-none-eabi/4.7.3/armv6-m\libgcc.a(_thumb1_case_sqi.o)
 .data          0x00000000        0x0 c:/appz/freescale/cw mcu v10.6/cross_tools/arm-none-eabi-gcc-4_7_3/bin/../lib/gcc/arm-none-eabi/4.7.3/armv6-m\libgcc.a(_thumb1_case_uqi.o)
 .bss           0x00000000        0x0 c:/appz/freescale/cw mcu v10.6/cross_tools/arm-none-eabi-gcc-4_7_3/bin/../lib/gcc/arm-none-eabi/4.7.3/armv6-m\libgcc.a(_thumb1_case_uqi.o)
 .data          0x00000000        0x0 c:/appz/freescale/cw mcu v10.6/cross_tools/arm-none-eabi-gcc-4_7_3/bin/../lib/gcc/arm-none-eabi/4.7.3/armv6-m\libgcc.a(_udivsi3.o)
 .bss           0x00000000        0x0 c:/appz/freescale/cw mcu v10.6/cross_tools/arm-none-eabi-gcc-4_7_3/bin/../lib/gcc/arm-none-eabi/4.7.3/armv6-m\libgcc.a(_udivsi3.o)
 .data          0x00000000        0x0 c:/appz/freescale/cw mcu v10.6/cross_tools/arm-none-eabi-gcc-4_7_3/bin/../lib/gcc/arm-none-eabi/4.7.3/armv6-m\libgcc.a(_divsi3.o)
 .bss           0x00000000        0x0 c:/appz/freescale/cw mcu v10.6/cross_tools/arm-none-eabi-gcc-4_7_3/bin/../lib/gcc/arm-none-eabi/4.7.3/armv6-m\libgcc.a(_divsi3.o)
 .data          0x00000000        0x0 c:/appz/freescale/cw mcu v10.6/cross_tools/arm-none-eabi-gcc-4_7_3/bin/../lib/gcc/arm-none-eabi/4.7.3/armv6-m\libgcc.a(_dvmd_tls.o)
 .bss           0x00000000        0x0 c:/appz/freescale/cw mcu v10.6/cross_tools/arm-none-eabi-gcc-4_7_3/bin/../lib/gcc/arm-none-eabi/4.7.3/armv6-m\libgcc.a(_dvmd_tls.o)
 .data          0x00000000        0x0 c:/appz/freescale/cw mcu v10.6/cross_tools/arm-none-eabi-gcc-4_7_3/bin/../lib/gcc/arm-none-eabi/4.7.3/armv6-m\libgcc.a(_arm_cmpdf2.o)
 .bss           0x00000000        0x0 c:/appz/freescale/cw mcu v10.6/cross_tools/arm-none-eabi-gcc-4_7_3/bin/../lib/gcc/arm-none-eabi/4.7.3/armv6-m\libgcc.a(_arm_cmpdf2.o)
 .data          0x00000000        0x0 c:/appz/freescale/cw mcu v10.6/cross_tools/arm-none-eabi-gcc-4_7_3/bin/../lib/gcc/arm-none-eabi/4.7.3/armv6-m\libgcc.a(_arm_cmpsf2.o)
 .bss           0x00000000        0x0 c:/appz/freescale/cw mcu v10.6/cross_tools/arm-none-eabi-gcc-4_7_3/bin/../lib/gcc/arm-none-eabi/4.7.3/armv6-m\libgcc.a(_arm_cmpsf2.o)
 .text          0x00000000       0x30 c:/appz/freescale/cw mcu v10.6/cross_tools/arm-none-eabi-gcc-4_7_3/bin/../lib/gcc/arm-none-eabi/4.7.3/armv6-m\libgcc.a(_fixunssfsi.o)
 .data          0x00000000        0x0 c:/appz/freescale/cw mcu v10.6/cross_tools/arm-none-eabi-gcc-4_7_3/bin/../lib/gcc/arm-none-eabi/4.7.3/armv6-m\libgcc.a(_fixunssfsi.o)
 .bss           0x00000000        0x0 c:/appz/freescale/cw mcu v10.6/cross_tools/arm-none-eabi-gcc-4_7_3/bin/../lib/gcc/arm-none-eabi/4.7.3/armv6-m\libgcc.a(_fixunssfsi.o)
 .ARM.attributes
                0x00000000       0x2c c:/appz/freescale/cw mcu v10.6/cross_tools/arm-none-eabi-gcc-4_7_3/bin/../lib/gcc/arm-none-eabi/4.7.3/armv6-m\libgcc.a(_fixunssfsi.o)
 .debug_frame   0x00000000       0x28 c:/appz/freescale/cw mcu v10.6/cross_tools/arm-none-eabi-gcc-4_7_3/bin/../lib/gcc/arm-none-eabi/4.7.3/armv6-m\libgcc.a(_fixunssfsi.o)
 .data          0x00000000        0x0 c:/appz/freescale/cw mcu v10.6/cross_tools/arm-none-eabi-gcc-4_7_3/bin/../lib/gcc/arm-none-eabi/4.7.3/armv6-m\libgcc.a(addsf3.o)
 .bss           0x00000000        0x0 c:/appz/freescale/cw mcu v10.6/cross_tools/arm-none-eabi-gcc-4_7_3/bin/../lib/gcc/arm-none-eabi/4.7.3/armv6-m\libgcc.a(addsf3.o)
 .data          0x00000000        0x0 c:/appz/freescale/cw mcu v10.6/cross_tools/arm-none-eabi-gcc-4_7_3/bin/../lib/gcc/arm-none-eabi/4.7.3/armv6-m\libgcc.a(divsf3.o)
 .bss           0x00000000        0x0 c:/appz/freescale/cw mcu v10.6/cross_tools/arm-none-eabi-gcc-4_7_3/bin/../lib/gcc/arm-none-eabi/4.7.3/armv6-m\libgcc.a(divsf3.o)
 .data          0x00000000        0x0 c:/appz/freescale/cw mcu v10.6/cross_tools/arm-none-eabi-gcc-4_7_3/bin/../lib/gcc/arm-none-eabi/4.7.3/armv6-m\libgcc.a(eqsf2.o)
 .bss           0x00000000        0x0 c:/appz/freescale/cw mcu v10.6/cross_tools/arm-none-eabi-gcc-4_7_3/bin/../lib/gcc/arm-none-eabi/4.7.3/armv6-m\libgcc.a(eqsf2.o)
 .data          0x00000000        0x0 c:/appz/freescale/cw mcu v10.6/cross_tools/arm-none-eabi-gcc-4_7_3/bin/../lib/gcc/arm-none-eabi/4.7.3/armv6-m\libgcc.a(gesf2.o)
 .bss           0x00000000        0x0 c:/appz/freescale/cw mcu v10.6/cross_tools/arm-none-eabi-gcc-4_7_3/bin/../lib/gcc/arm-none-eabi/4.7.3/armv6-m\libgcc.a(gesf2.o)
 .data          0x00000000        0x0 c:/appz/freescale/cw mcu v10.6/cross_tools/arm-none-eabi-gcc-4_7_3/bin/../lib/gcc/arm-none-eabi/4.7.3/armv6-m\libgcc.a(lesf2.o)
 .bss           0x00000000        0x0 c:/appz/freescale/cw mcu v10.6/cross_tools/arm-none-eabi-gcc-4_7_3/bin/../lib/gcc/arm-none-eabi/4.7.3/armv6-m\libgcc.a(lesf2.o)
 .data          0x00000000        0x0 c:/appz/freescale/cw mcu v10.6/cross_tools/arm-none-eabi-gcc-4_7_3/bin/../lib/gcc/arm-none-eabi/4.7.3/armv6-m\libgcc.a(mulsf3.o)
 .bss           0x00000000        0x0 c:/appz/freescale/cw mcu v10.6/cross_tools/arm-none-eabi-gcc-4_7_3/bin/../lib/gcc/arm-none-eabi/4.7.3/armv6-m\libgcc.a(mulsf3.o)
 .data          0x00000000        0x0 c:/appz/freescale/cw mcu v10.6/cross_tools/arm-none-eabi-gcc-4_7_3/bin/../lib/gcc/arm-none-eabi/4.7.3/armv6-m\libgcc.a(subsf3.o)
 .bss           0x00000000        0x0 c:/appz/freescale/cw mcu v10.6/cross_tools/arm-none-eabi-gcc-4_7_3/bin/../lib/gcc/arm-none-eabi/4.7.3/armv6-m\libgcc.a(subsf3.o)
 .data          0x00000000        0x0 c:/appz/freescale/cw mcu v10.6/cross_tools/arm-none-eabi-gcc-4_7_3/bin/../lib/gcc/arm-none-eabi/4.7.3/armv6-m\libgcc.a(fixsfsi.o)
 .bss           0x00000000        0x0 c:/appz/freescale/cw mcu v10.6/cross_tools/arm-none-eabi-gcc-4_7_3/bin/../lib/gcc/arm-none-eabi/4.7.3/armv6-m\libgcc.a(fixsfsi.o)
 .data          0x00000000        0x0 c:/appz/freescale/cw mcu v10.6/cross_tools/arm-none-eabi-gcc-4_7_3/bin/../lib/gcc/arm-none-eabi/4.7.3/armv6-m\libgcc.a(floatsisf.o)
 .bss           0x00000000        0x0 c:/appz/freescale/cw mcu v10.6/cross_tools/arm-none-eabi-gcc-4_7_3/bin/../lib/gcc/arm-none-eabi/4.7.3/armv6-m\libgcc.a(floatsisf.o)
 .data          0x00000000        0x0 c:/appz/freescale/cw mcu v10.6/cross_tools/arm-none-eabi-gcc-4_7_3/bin/../lib/gcc/arm-none-eabi/4.7.3/armv6-m\libgcc.a(adddf3.o)
 .bss           0x00000000        0x0 c:/appz/freescale/cw mcu v10.6/cross_tools/arm-none-eabi-gcc-4_7_3/bin/../lib/gcc/arm-none-eabi/4.7.3/armv6-m\libgcc.a(adddf3.o)
 .data          0x00000000        0x0 c:/appz/freescale/cw mcu v10.6/cross_tools/arm-none-eabi-gcc-4_7_3/bin/../lib/gcc/arm-none-eabi/4.7.3/armv6-m\libgcc.a(divdf3.o)
 .bss           0x00000000        0x0 c:/appz/freescale/cw mcu v10.6/cross_tools/arm-none-eabi-gcc-4_7_3/bin/../lib/gcc/arm-none-eabi/4.7.3/armv6-m\libgcc.a(divdf3.o)
 .data          0x00000000        0x0 c:/appz/freescale/cw mcu v10.6/cross_tools/arm-none-eabi-gcc-4_7_3/bin/../lib/gcc/arm-none-eabi/4.7.3/armv6-m\libgcc.a(eqdf2.o)
 .bss           0x00000000        0x0 c:/appz/freescale/cw mcu v10.6/cross_tools/arm-none-eabi-gcc-4_7_3/bin/../lib/gcc/arm-none-eabi/4.7.3/armv6-m\libgcc.a(eqdf2.o)
 .data          0x00000000        0x0 c:/appz/freescale/cw mcu v10.6/cross_tools/arm-none-eabi-gcc-4_7_3/bin/../lib/gcc/arm-none-eabi/4.7.3/armv6-m\libgcc.a(gedf2.o)
 .bss           0x00000000        0x0 c:/appz/freescale/cw mcu v10.6/cross_tools/arm-none-eabi-gcc-4_7_3/bin/../lib/gcc/arm-none-eabi/4.7.3/armv6-m\libgcc.a(gedf2.o)
 .data          0x00000000        0x0 c:/appz/freescale/cw mcu v10.6/cross_tools/arm-none-eabi-gcc-4_7_3/bin/../lib/gcc/arm-none-eabi/4.7.3/armv6-m\libgcc.a(ledf2.o)
 .bss           0x00000000        0x0 c:/appz/freescale/cw mcu v10.6/cross_tools/arm-none-eabi-gcc-4_7_3/bin/../lib/gcc/arm-none-eabi/4.7.3/armv6-m\libgcc.a(ledf2.o)
 .data          0x00000000        0x0 c:/appz/freescale/cw mcu v10.6/cross_tools/arm-none-eabi-gcc-4_7_3/bin/../lib/gcc/arm-none-eabi/4.7.3/armv6-m\libgcc.a(muldf3.o)
 .bss           0x00000000        0x0 c:/appz/freescale/cw mcu v10.6/cross_tools/arm-none-eabi-gcc-4_7_3/bin/../lib/gcc/arm-none-eabi/4.7.3/armv6-m\libgcc.a(muldf3.o)
 .data          0x00000000        0x0 c:/appz/freescale/cw mcu v10.6/cross_tools/arm-none-eabi-gcc-4_7_3/bin/../lib/gcc/arm-none-eabi/4.7.3/armv6-m\libgcc.a(subdf3.o)
 .bss           0x00000000        0x0 c:/appz/freescale/cw mcu v10.6/cross_tools/arm-none-eabi-gcc-4_7_3/bin/../lib/gcc/arm-none-eabi/4.7.3/armv6-m\libgcc.a(subdf3.o)
 .data          0x00000000        0x0 c:/appz/freescale/cw mcu v10.6/cross_tools/arm-none-eabi-gcc-4_7_3/bin/../lib/gcc/arm-none-eabi/4.7.3/armv6-m\libgcc.a(fixdfsi.o)
 .bss           0x00000000        0x0 c:/appz/freescale/cw mcu v10.6/cross_tools/arm-none-eabi-gcc-4_7_3/bin/../lib/gcc/arm-none-eabi/4.7.3/armv6-m\libgcc.a(fixdfsi.o)
 .data          0x00000000        0x0 c:/appz/freescale/cw mcu v10.6/cross_tools/arm-none-eabi-gcc-4_7_3/bin/../lib/gcc/arm-none-eabi/4.7.3/armv6-m\libgcc.a(floatsidf.o)
 .bss           0x00000000        0x0 c:/appz/freescale/cw mcu v10.6/cross_tools/arm-none-eabi-gcc-4_7_3/bin/../lib/gcc/arm-none-eabi/4.7.3/armv6-m\libgcc.a(floatsidf.o)
 .data          0x00000000        0x0 c:/appz/freescale/cw mcu v10.6/cross_tools/arm-none-eabi-gcc-4_7_3/bin/../lib/gcc/arm-none-eabi/4.7.3/armv6-m\libgcc.a(extendsfdf2.o)
 .bss           0x00000000        0x0 c:/appz/freescale/cw mcu v10.6/cross_tools/arm-none-eabi-gcc-4_7_3/bin/../lib/gcc/arm-none-eabi/4.7.3/armv6-m\libgcc.a(extendsfdf2.o)
 .data          0x00000000        0x0 c:/appz/freescale/cw mcu v10.6/cross_tools/arm-none-eabi-gcc-4_7_3/bin/../lib/gcc/arm-none-eabi/4.7.3/armv6-m\libgcc.a(truncdfsf2.o)
 .bss           0x00000000        0x0 c:/appz/freescale/cw mcu v10.6/cross_tools/arm-none-eabi-gcc-4_7_3/bin/../lib/gcc/arm-none-eabi/4.7.3/armv6-m\libgcc.a(truncdfsf2.o)
 .data          0x00000000        0x0 c:/appz/freescale/cw mcu v10.6/cross_tools/arm-none-eabi-gcc-4_7_3/bin/../lib/gcc/arm-none-eabi/4.7.3/armv6-m\libgcc.a(_clzsi2.o)
 .bss           0x00000000        0x0 c:/appz/freescale/cw mcu v10.6/cross_tools/arm-none-eabi-gcc-4_7_3/bin/../lib/gcc/arm-none-eabi/4.7.3/armv6-m\libgcc.a(_clzsi2.o)
 .text          0x00000000        0x0 C:/Appz/Freescale/CW MCU v10.6/MCU/ARM_GCC_Support/ewl/lib/armv6-m\librt.a(gcc_ctor_dtor.o)
 .data          0x00000000        0x0 C:/Appz/Freescale/CW MCU v10.6/MCU/ARM_GCC_Support/ewl/lib/armv6-m\librt.a(gcc_ctor_dtor.o)
 .bss           0x00000000        0x0 C:/Appz/Freescale/CW MCU v10.6/MCU/ARM_GCC_Support/ewl/lib/armv6-m\librt.a(gcc_ctor_dtor.o)
 .bss.__dso_handle
                0x00000000        0x4 C:/Appz/Freescale/CW MCU v10.6/MCU/ARM_GCC_Support/ewl/lib/armv6-m\librt.a(gcc_ctor_dtor.o)
 .text          0x00000000        0x0 C:/Appz/Freescale/CW MCU v10.6/MCU/ARM_GCC_Support/ewl/lib/armv6-m\librt.a(ROMCopy.o)
 .data          0x00000000        0x0 C:/Appz/Freescale/CW MCU v10.6/MCU/ARM_GCC_Support/ewl/lib/armv6-m\librt.a(ROMCopy.o)
 .bss           0x00000000        0x0 C:/Appz/Freescale/CW MCU v10.6/MCU/ARM_GCC_Support/ewl/lib/armv6-m\librt.a(ROMCopy.o)
 .text.__flush_cache
                0x00000000        0x2 C:/Appz/Freescale/CW MCU v10.6/MCU/ARM_GCC_Support/ewl/lib/armv6-m\librt.a(ROMCopy.o)
 .text          0x00000000        0x0 C:/Appz/Freescale/CW MCU v10.6/MCU/ARM_GCC_Support/ewl/lib/armv6-m\librt.a(__arm_eabi_init.o)
 .data          0x00000000        0x0 C:/Appz/Freescale/CW MCU v10.6/MCU/ARM_GCC_Support/ewl/lib/armv6-m\librt.a(__arm_eabi_init.o)
 .bss           0x00000000        0x0 C:/Appz/Freescale/CW MCU v10.6/MCU/ARM_GCC_Support/ewl/lib/armv6-m\librt.a(__arm_eabi_init.o)
 .text.__register_global_object
                0x00000000       0x14 C:/Appz/Freescale/CW MCU v10.6/MCU/ARM_GCC_Support/ewl/lib/armv6-m\librt.a(__arm_eabi_init.o)
 .text.__cxa_atexit
                0x00000000       0x38 C:/Appz/Freescale/CW MCU v10.6/MCU/ARM_GCC_Support/ewl/lib/armv6-m\librt.a(__arm_eabi_init.o)
 .text.__aeabi_atexit
                0x00000000        0xe C:/Appz/Freescale/CW MCU v10.6/MCU/ARM_GCC_Support/ewl/lib/armv6-m\librt.a(__arm_eabi_init.o)
 .text.__register_atexit
                0x00000000        0xc C:/Appz/Freescale/CW MCU v10.6/MCU/ARM_GCC_Support/ewl/lib/armv6-m\librt.a(__arm_eabi_init.o)
 .text.__init_hardware
                0x00000000        0x4 C:/Appz/Freescale/CW MCU v10.6/MCU/ARM_GCC_Support/ewl/lib/armv6-m\librt.a(__arm_eabi_init.o)
 .bss.atexit_curr_func
                0x00000000        0x4 C:/Appz/Freescale/CW MCU v10.6/MCU/ARM_GCC_Support/ewl/lib/armv6-m\librt.a(__arm_eabi_init.o)
 .bss.atexit_funcs
                0x00000000      0x300 C:/Appz/Freescale/CW MCU v10.6/MCU/ARM_GCC_Support/ewl/lib/armv6-m\librt.a(__arm_eabi_init.o)
 .text          0x00000000        0x0 C:/Appz/Freescale/CW MCU v10.6/MCU/ARM_GCC_Support/ewl/lib/armv6-m\librt.a(setjmp.o)
 .data          0x00000000        0x0 C:/Appz/Freescale/CW MCU v10.6/MCU/ARM_GCC_Support/ewl/lib/armv6-m\librt.a(setjmp.o)
 .bss           0x00000000        0x0 C:/Appz/Freescale/CW MCU v10.6/MCU/ARM_GCC_Support/ewl/lib/armv6-m\librt.a(setjmp.o)
 .text          0x00000000        0x0 C:/Appz/Freescale/CW MCU v10.6/MCU/ARM_GCC_Support/ewl/lib/armv6-m\libhosted.a(semihosted_console_io.o)
 .data          0x00000000        0x0 C:/Appz/Freescale/CW MCU v10.6/MCU/ARM_GCC_Support/ewl/lib/armv6-m\libhosted.a(semihosted_console_io.o)
 .bss           0x00000000        0x0 C:/Appz/Freescale/CW MCU v10.6/MCU/ARM_GCC_Support/ewl/lib/armv6-m\libhosted.a(semihosted_console_io.o)
 .text.sys_writec
                0x00000000        0xc C:/Appz/Freescale/CW MCU v10.6/MCU/ARM_GCC_Support/ewl/lib/armv6-m\libhosted.a(semihosted_console_io.o)
 .text.sys_write0
                0x00000000        0xc C:/Appz/Freescale/CW MCU v10.6/MCU/ARM_GCC_Support/ewl/lib/armv6-m\libhosted.a(semihosted_console_io.o)
 .text.sys_readc
                0x00000000        0xc C:/Appz/Freescale/CW MCU v10.6/MCU/ARM_GCC_Support/ewl/lib/armv6-m\libhosted.a(semihosted_console_io.o)
 .text.__read_console
                0x00000000       0x1a C:/Appz/Freescale/CW MCU v10.6/MCU/ARM_GCC_Support/ewl/lib/armv6-m\libhosted.a(semihosted_console_io.o)
 .text.__write_console
                0x00000000       0x18 C:/Appz/Freescale/CW MCU v10.6/MCU/ARM_GCC_Support/ewl/lib/armv6-m\libhosted.a(semihosted_console_io.o)
 .text.__close_console
                0x00000000        0x4 C:/Appz/Freescale/CW MCU v10.6/MCU/ARM_GCC_Support/ewl/lib/armv6-m\libhosted.a(semihosted_console_io.o)
 .text          0x00000000        0x0 C:/Appz/Freescale/CW MCU v10.6/MCU/ARM_GCC_Support/ewl/lib/armv6-m\libhosted.a(semihosted_file_io.o)
 .data          0x00000000        0x0 C:/Appz/Freescale/CW MCU v10.6/MCU/ARM_GCC_Support/ewl/lib/armv6-m\libhosted.a(semihosted_file_io.o)
 .bss           0x00000000        0x0 C:/Appz/Freescale/CW MCU v10.6/MCU/ARM_GCC_Support/ewl/lib/armv6-m\libhosted.a(semihosted_file_io.o)
 .text.sys_close
                0x00000000        0xc C:/Appz/Freescale/CW MCU v10.6/MCU/ARM_GCC_Support/ewl/lib/armv6-m\libhosted.a(semihosted_file_io.o)
 .text.fstat    0x00000000        0x6 C:/Appz/Freescale/CW MCU v10.6/MCU/ARM_GCC_Support/ewl/lib/armv6-m\libhosted.a(semihosted_file_io.o)
 .text.sys_write
                0x00000000        0xc C:/Appz/Freescale/CW MCU v10.6/MCU/ARM_GCC_Support/ewl/lib/armv6-m\libhosted.a(semihosted_file_io.o)
 .text.__write_file
                0x00000000       0x1a C:/Appz/Freescale/CW MCU v10.6/MCU/ARM_GCC_Support/ewl/lib/armv6-m\libhosted.a(semihosted_file_io.o)
 .text.write    0x00000000       0x18 C:/Appz/Freescale/CW MCU v10.6/MCU/ARM_GCC_Support/ewl/lib/armv6-m\libhosted.a(semihosted_file_io.o)
 .text.sys_read
                0x00000000        0xc C:/Appz/Freescale/CW MCU v10.6/MCU/ARM_GCC_Support/ewl/lib/armv6-m\libhosted.a(semihosted_file_io.o)
 .text.__read_file
                0x00000000       0x38 C:/Appz/Freescale/CW MCU v10.6/MCU/ARM_GCC_Support/ewl/lib/armv6-m\libhosted.a(semihosted_file_io.o)
 .text.read     0x00000000       0x18 C:/Appz/Freescale/CW MCU v10.6/MCU/ARM_GCC_Support/ewl/lib/armv6-m\libhosted.a(semihosted_file_io.o)
 .text.sys_seek
                0x00000000        0xc C:/Appz/Freescale/CW MCU v10.6/MCU/ARM_GCC_Support/ewl/lib/armv6-m\libhosted.a(semihosted_file_io.o)
 .text.sys_flen
                0x00000000        0xc C:/Appz/Freescale/CW MCU v10.6/MCU/ARM_GCC_Support/ewl/lib/armv6-m\libhosted.a(semihosted_file_io.o)
 .text.__position_file
                0x00000000       0x30 C:/Appz/Freescale/CW MCU v10.6/MCU/ARM_GCC_Support/ewl/lib/armv6-m\libhosted.a(semihosted_file_io.o)
 .text.lseek    0x00000000        0xc C:/Appz/Freescale/CW MCU v10.6/MCU/ARM_GCC_Support/ewl/lib/armv6-m\libhosted.a(semihosted_file_io.o)
 .text.sys_tmpnam
                0x00000000        0xc C:/Appz/Freescale/CW MCU v10.6/MCU/ARM_GCC_Support/ewl/lib/armv6-m\libhosted.a(semihosted_file_io.o)
 .text.__temp_file_name
                0x00000000       0x28 C:/Appz/Freescale/CW MCU v10.6/MCU/ARM_GCC_Support/ewl/lib/armv6-m\libhosted.a(semihosted_file_io.o)
 .text.sys_remove
                0x00000000        0xc C:/Appz/Freescale/CW MCU v10.6/MCU/ARM_GCC_Support/ewl/lib/armv6-m\libhosted.a(semihosted_file_io.o)
 .text.__delete_file
                0x00000000       0x14 C:/Appz/Freescale/CW MCU v10.6/MCU/ARM_GCC_Support/ewl/lib/armv6-m\libhosted.a(semihosted_file_io.o)
 .text.__close_file
                0x00000000       0x6c C:/Appz/Freescale/CW MCU v10.6/MCU/ARM_GCC_Support/ewl/lib/armv6-m\libhosted.a(semihosted_file_io.o)
 .text.close    0x00000000        0x8 C:/Appz/Freescale/CW MCU v10.6/MCU/ARM_GCC_Support/ewl/lib/armv6-m\libhosted.a(semihosted_file_io.o)
 .text.sys_rename
                0x00000000        0xc C:/Appz/Freescale/CW MCU v10.6/MCU/ARM_GCC_Support/ewl/lib/armv6-m\libhosted.a(semihosted_file_io.o)
 .text.__rename_file
                0x00000000       0x24 C:/Appz/Freescale/CW MCU v10.6/MCU/ARM_GCC_Support/ewl/lib/armv6-m\libhosted.a(semihosted_file_io.o)
 .text.__open_temp_file
                0x00000000       0x6c C:/Appz/Freescale/CW MCU v10.6/MCU/ARM_GCC_Support/ewl/lib/armv6-m\libhosted.a(semihosted_file_io.o)
 .bss.tmpnam_targetid.4369
                0x00000000        0x4 C:/Appz/Freescale/CW MCU v10.6/MCU/ARM_GCC_Support/ewl/lib/armv6-m\libhosted.a(semihosted_file_io.o)
 .bss.__temp_info_anchor
                0x00000000        0x4 C:/Appz/Freescale/CW MCU v10.6/MCU/ARM_GCC_Support/ewl/lib/armv6-m\libhosted.a(semihosted_file_io.o)
 .text          0x00000000        0x0 C:/Appz/Freescale/CW MCU v10.6/MCU/ARM_GCC_Support/ewl/lib/armv6-m\libc.a(alloc.o)
 .data          0x00000000        0x0 C:/Appz/Freescale/CW MCU v10.6/MCU/ARM_GCC_Support/ewl/lib/armv6-m\libc.a(alloc.o)
 .bss           0x00000000        0x0 C:/Appz/Freescale/CW MCU v10.6/MCU/ARM_GCC_Support/ewl/lib/armv6-m\libc.a(alloc.o)
 .text.sbrk     0x00000000       0x2c C:/Appz/Freescale/CW MCU v10.6/MCU/ARM_GCC_Support/ewl/lib/armv6-m\libc.a(alloc.o)
 .text.malloc   0x00000000      0x114 C:/Appz/Freescale/CW MCU v10.6/MCU/ARM_GCC_Support/ewl/lib/armv6-m\libc.a(alloc.o)
 .text.realloc  0x00000000       0x42 C:/Appz/Freescale/CW MCU v10.6/MCU/ARM_GCC_Support/ewl/lib/armv6-m\libc.a(alloc.o)
 .text.free     0x00000000       0x12 C:/Appz/Freescale/CW MCU v10.6/MCU/ARM_GCC_Support/ewl/lib/armv6-m\libc.a(alloc.o)
 .text.calloc   0x00000000       0x40 C:/Appz/Freescale/CW MCU v10.6/MCU/ARM_GCC_Support/ewl/lib/armv6-m\libc.a(alloc.o)
 .bss.head      0x00000000        0x4 C:/Appz/Freescale/CW MCU v10.6/MCU/ARM_GCC_Support/ewl/lib/armv6-m\libc.a(alloc.o)
 .data.tail     0x00000000        0x4 C:/Appz/Freescale/CW MCU v10.6/MCU/ARM_GCC_Support/ewl/lib/armv6-m\libc.a(alloc.o)
 .bss.heap_end.4347
                0x00000000        0x4 C:/Appz/Freescale/CW MCU v10.6/MCU/ARM_GCC_Support/ewl/lib/armv6-m\libc.a(alloc.o)
 .debug_info    0x00000000      0x340 C:/Appz/Freescale/CW MCU v10.6/MCU/ARM_GCC_Support/ewl/lib/armv6-m\libc.a(alloc.o)
 .debug_abbrev  0x00000000      0x167 C:/Appz/Freescale/CW MCU v10.6/MCU/ARM_GCC_Support/ewl/lib/armv6-m\libc.a(alloc.o)
 .debug_loc     0x00000000      0x335 C:/Appz/Freescale/CW MCU v10.6/MCU/ARM_GCC_Support/ewl/lib/armv6-m\libc.a(alloc.o)
 .debug_aranges
                0x00000000       0x40 C:/Appz/Freescale/CW MCU v10.6/MCU/ARM_GCC_Support/ewl/lib/armv6-m\libc.a(alloc.o)
 .debug_line    0x00000000      0x156 C:/Appz/Freescale/CW MCU v10.6/MCU/ARM_GCC_Support/ewl/lib/armv6-m\libc.a(alloc.o)
 .debug_str     0x00000000      0x200 C:/Appz/Freescale/CW MCU v10.6/MCU/ARM_GCC_Support/ewl/lib/armv6-m\libc.a(alloc.o)
 .comment       0x00000000       0x7a C:/Appz/Freescale/CW MCU v10.6/MCU/ARM_GCC_Support/ewl/lib/armv6-m\libc.a(alloc.o)
 .ARM.attributes
                0x00000000       0x31 C:/Appz/Freescale/CW MCU v10.6/MCU/ARM_GCC_Support/ewl/lib/armv6-m\libc.a(alloc.o)
 .debug_frame   0x00000000       0x9c C:/Appz/Freescale/CW MCU v10.6/MCU/ARM_GCC_Support/ewl/lib/armv6-m\libc.a(alloc.o)
 .text          0x00000000        0x0 C:/Appz/Freescale/CW MCU v10.6/MCU/ARM_GCC_Support/ewl/lib/armv6-m\libc.a(math_ARM.o)
 .data          0x00000000        0x0 C:/Appz/Freescale/CW MCU v10.6/MCU/ARM_GCC_Support/ewl/lib/armv6-m\libc.a(math_ARM.o)
 .bss           0x00000000        0x0 C:/Appz/Freescale/CW MCU v10.6/MCU/ARM_GCC_Support/ewl/lib/armv6-m\libc.a(math_ARM.o)
 .text.__ewl_count_bits32
                0x00000000        0x8 C:/Appz/Freescale/CW MCU v10.6/MCU/ARM_GCC_Support/ewl/lib/armv6-m\libc.a(math_ARM.o)
 .text.__ewl_count_leading_zero32
                0x00000000        0x8 C:/Appz/Freescale/CW MCU v10.6/MCU/ARM_GCC_Support/ewl/lib/armv6-m\libc.a(math_ARM.o)
 .text.__ewl_count_trailing_zero32
                0x00000000        0xe C:/Appz/Freescale/CW MCU v10.6/MCU/ARM_GCC_Support/ewl/lib/armv6-m\libc.a(math_ARM.o)
 .text.__ewl_count_leading_one32
                0x00000000        0xa C:/Appz/Freescale/CW MCU v10.6/MCU/ARM_GCC_Support/ewl/lib/armv6-m\libc.a(math_ARM.o)
 .text.__ewl_count_trailing_one32
                0x00000000        0xa C:/Appz/Freescale/CW MCU v10.6/MCU/ARM_GCC_Support/ewl/lib/armv6-m\libc.a(math_ARM.o)
 .text.__ewl_rotate_left32
                0x00000000        0xc C:/Appz/Freescale/CW MCU v10.6/MCU/ARM_GCC_Support/ewl/lib/armv6-m\libc.a(math_ARM.o)
 .text.__ewl_rotate_right32
                0x00000000        0x8 C:/Appz/Freescale/CW MCU v10.6/MCU/ARM_GCC_Support/ewl/lib/armv6-m\libc.a(math_ARM.o)
 .text.__ewl_count_bits64
                0x00000000        0x8 C:/Appz/Freescale/CW MCU v10.6/MCU/ARM_GCC_Support/ewl/lib/armv6-m\libc.a(math_ARM.o)
 .text.__ewl_count_leading_zero64
                0x00000000        0x8 C:/Appz/Freescale/CW MCU v10.6/MCU/ARM_GCC_Support/ewl/lib/armv6-m\libc.a(math_ARM.o)
 .text.__ewl_count_trailing_zero64
                0x00000000       0x20 C:/Appz/Freescale/CW MCU v10.6/MCU/ARM_GCC_Support/ewl/lib/armv6-m\libc.a(math_ARM.o)
 .text.__ewl_count_leading_one64
                0x00000000        0xc C:/Appz/Freescale/CW MCU v10.6/MCU/ARM_GCC_Support/ewl/lib/armv6-m\libc.a(math_ARM.o)
 .text.__ewl_count_trailing_one64
                0x00000000        0xc C:/Appz/Freescale/CW MCU v10.6/MCU/ARM_GCC_Support/ewl/lib/armv6-m\libc.a(math_ARM.o)
 .text.__ewl_rotate_left64
                0x00000000       0x2c C:/Appz/Freescale/CW MCU v10.6/MCU/ARM_GCC_Support/ewl/lib/armv6-m\libc.a(math_ARM.o)
 .text.__ewl_rotate_right64
                0x00000000       0x2c C:/Appz/Freescale/CW MCU v10.6/MCU/ARM_GCC_Support/ewl/lib/armv6-m\libc.a(math_ARM.o)
 .debug_info    0x00000000      0x31e C:/Appz/Freescale/CW MCU v10.6/MCU/ARM_GCC_Support/ewl/lib/armv6-m\libc.a(math_ARM.o)
 .debug_abbrev  0x00000000       0x8b C:/Appz/Freescale/CW MCU v10.6/MCU/ARM_GCC_Support/ewl/lib/armv6-m\libc.a(math_ARM.o)
 .debug_loc     0x00000000      0x325 C:/Appz/Freescale/CW MCU v10.6/MCU/ARM_GCC_Support/ewl/lib/armv6-m\libc.a(math_ARM.o)
 .debug_aranges
                0x00000000       0x88 C:/Appz/Freescale/CW MCU v10.6/MCU/ARM_GCC_Support/ewl/lib/armv6-m\libc.a(math_ARM.o)
 .debug_line    0x00000000      0x14b C:/Appz/Freescale/CW MCU v10.6/MCU/ARM_GCC_Support/ewl/lib/armv6-m\libc.a(math_ARM.o)
 .debug_str     0x00000000      0x283 C:/Appz/Freescale/CW MCU v10.6/MCU/ARM_GCC_Support/ewl/lib/armv6-m\libc.a(math_ARM.o)
 .comment       0x00000000       0x7a C:/Appz/Freescale/CW MCU v10.6/MCU/ARM_GCC_Support/ewl/lib/armv6-m\libc.a(math_ARM.o)
 .ARM.attributes
                0x00000000       0x31 C:/Appz/Freescale/CW MCU v10.6/MCU/ARM_GCC_Support/ewl/lib/armv6-m\libc.a(math_ARM.o)
 .debug_frame   0x00000000      0x16c C:/Appz/Freescale/CW MCU v10.6/MCU/ARM_GCC_Support/ewl/lib/armv6-m\libc.a(math_ARM.o)
 .text          0x00000000       0x18 c:/appz/freescale/cw mcu v10.6/cross_tools/arm-none-eabi-gcc-4_7_3/bin/../lib/gcc/arm-none-eabi/4.7.3/armv6-m\libgcc.a(_lshrdi3.o)
 .data          0x00000000        0x0 c:/appz/freescale/cw mcu v10.6/cross_tools/arm-none-eabi-gcc-4_7_3/bin/../lib/gcc/arm-none-eabi/4.7.3/armv6-m\libgcc.a(_lshrdi3.o)
 .bss           0x00000000        0x0 c:/appz/freescale/cw mcu v10.6/cross_tools/arm-none-eabi-gcc-4_7_3/bin/../lib/gcc/arm-none-eabi/4.7.3/armv6-m\libgcc.a(_lshrdi3.o)
 .ARM.attributes
                0x00000000       0x1e c:/appz/freescale/cw mcu v10.6/cross_tools/arm-none-eabi-gcc-4_7_3/bin/../lib/gcc/arm-none-eabi/4.7.3/armv6-m\libgcc.a(_lshrdi3.o)
 .text          0x00000000       0x18 c:/appz/freescale/cw mcu v10.6/cross_tools/arm-none-eabi-gcc-4_7_3/bin/../lib/gcc/arm-none-eabi/4.7.3/armv6-m\libgcc.a(_ashldi3.o)
 .data          0x00000000        0x0 c:/appz/freescale/cw mcu v10.6/cross_tools/arm-none-eabi-gcc-4_7_3/bin/../lib/gcc/arm-none-eabi/4.7.3/armv6-m\libgcc.a(_ashldi3.o)
 .bss           0x00000000        0x0 c:/appz/freescale/cw mcu v10.6/cross_tools/arm-none-eabi-gcc-4_7_3/bin/../lib/gcc/arm-none-eabi/4.7.3/armv6-m\libgcc.a(_ashldi3.o)
 .ARM.attributes
                0x00000000       0x1e c:/appz/freescale/cw mcu v10.6/cross_tools/arm-none-eabi-gcc-4_7_3/bin/../lib/gcc/arm-none-eabi/4.7.3/armv6-m\libgcc.a(_ashldi3.o)

Memory Configuration

Name             Origin             Length             Attributes
m_interrupts     0x00000000         0x000000c0         xr
m_text           0x00000410         0x0001fbf0         xr
m_data           0x1ffff000         0x00004000         rw
m_cfmprotrom     0x00000400         0x00000010         xr
*default*        0x00000000         0xffffffff

Linker script and memory map

LOAD ./Generated_Code/Vectors.o
LOAD ./Generated_Code/UP.o
LOAD ./Generated_Code/UART.o
LOAD ./Generated_Code/TestPin_MagCal_Time.o
LOAD ./Generated_Code/TestPin_KF_Time.o
LOAD ./Generated_Code/TU1.o
LOAD ./Generated_Code/SystemTimer1.o
LOAD ./Generated_Code/RIGHT.o
LOAD ./Generated_Code/PWM1.o
LOAD ./Generated_Code/PE_LDD.o
LOAD ./Generated_Code/MQX1.o
LOAD ./Generated_Code/LEFT.o
LOAD ./Generated_Code/LED_RED.o
LOAD ./Generated_Code/LED_GREEN.o
LOAD ./Generated_Code/I2C.o
LOAD ./Generated_Code/FTM.o
LOAD ./Generated_Code/DOWN.o
LOAD ./Generated_Code/Cpu.o
LOAD ./Generated_Code/BitIoLdd6.o
LOAD ./Generated_Code/BitIoLdd5.o
LOAD ./Generated_Code/BitIoLdd4.o
LOAD ./Generated_Code/BitIoLdd3.o
LOAD ./Generated_Code/BitIoLdd2.o
LOAD ./Generated_Code/BitIoLdd1.o
LOAD ./Generated_Code/Bit2.o
LOAD ./Generated_Code/Bit1.o
LOAD ./MQXLITE/config/task_template_list.o
LOAD ./MQXLITE/kernel/time_ticks.o
LOAD ./MQXLITE/kernel/task.o
LOAD ./MQXLITE/kernel/sched.o
LOAD ./MQXLITE/kernel/qu_test.o
LOAD ./MQXLITE/kernel/mutex.o
LOAD ./MQXLITE/kernel/mqxlite.o
LOAD ./MQXLITE/kernel/mqx_utils.o
LOAD ./MQXLITE/kernel/lwtimer.o
LOAD ./MQXLITE/kernel/lwsem.o
LOAD ./MQXLITE/kernel/lwmsgq.o
LOAD ./MQXLITE/kernel/lwlog.o
LOAD ./MQXLITE/kernel/lwevent.o
LOAD ./MQXLITE/kernel/klog.o
LOAD ./MQXLITE/kernel/int.o
LOAD ./MQXLITE/kernel/idletask.o
LOAD ./MQXLITE/psp/cortex_m/core/M0/dispatch.o
LOAD ./MQXLITE/psp/cortex_m/core/M0/boot.o
LOAD ./MQXLITE/psp/cortex_m/stack_st.o
LOAD ./MQXLITE/psp/cortex_m/stack_de.o
LOAD ./MQXLITE/psp/cortex_m/stack_bu.o
LOAD ./MQXLITE/psp/cortex_m/sc_irdyq.o
LOAD ./MQXLITE/psp/cortex_m/psp_tisu.o
LOAD ./MQXLITE/psp/cortex_m/psp_tinm.o
LOAD ./MQXLITE/psp/cortex_m/psp_tiad.o
LOAD ./MQXLITE/psp/cortex_m/psp_supp.o
LOAD ./MQXLITE/psp/cortex_m/psp_iinit.o
LOAD ./MQXLITE/psp/cortex_m/mem_zero.o
LOAD ./MQXLITE/psp/cortex_m/int_xcpt.o
LOAD ./MQXLITE/psp/cortex_m/int_vtab.o
LOAD ./MQXLITE/psp/cortex_m/int_unx.o
LOAD ./MQXLITE/psp/cortex_m/int_pvta.o
LOAD ./MQXLITE/psp/cortex_m/int_kisr.o
LOAD ./MQXLITE/psp/cortex_m/int_inst.o
LOAD ./MQXLITE/psp/cortex_m/int_gkis.o
LOAD ./MQXLITE/psp/cortex_m/cortex.o
LOAD ./Project_Settings/Startup_Code/__arm_start.o
LOAD ./Project_Settings/Startup_Code/__arm_end.o
LOAD ./Sources/user_tasks.o
LOAD ./Sources/tasks_func.o
LOAD ./Sources/sa_mtb.o
LOAD ./Sources/mqx_tasks.o
LOAD ./Sources/main.o
LOAD ./Sources/FSL_utils.o
LOAD ./Sources/Events.o
                0x00013e40                __pformatter = __pformatterFP
                0x00014698                __sformatter = __sformatter_FP
LOAD D:/xuser00/Ansoft/XSFK_KL25Z/XSFK_KL25Z/Library\libFusion.a
START GROUP
LOAD C:/Appz/Freescale/CW MCU v10.6/MCU/ARM_GCC_Support/ewl/lib/armv6-m\libc.a
LOAD C:/Appz/Freescale/CW MCU v10.6/MCU/ARM_GCC_Support/ewl/lib/armv6-m\libm.a
LOAD c:/appz/freescale/cw mcu v10.6/cross_tools/arm-none-eabi-gcc-4_7_3/bin/../lib/gcc/arm-none-eabi/4.7.3/armv6-m\libgcc.a
LOAD C:/Appz/Freescale/CW MCU v10.6/MCU/ARM_GCC_Support/ewl/lib/armv6-m\librt.a
LOAD C:/Appz/Freescale/CW MCU v10.6/MCU/ARM_GCC_Support/ewl/lib/armv6-m\libhosted.a
END GROUP
                0x20003000                _estack = 0x20003000
                0x20003000                __SP_INIT = _estack
                0x00000000                __heap_size = 0x0
                0x00000400                __stack_size = 0x400

.interrupts     0x00000000       0xc0
                0x00000000                __vector_table = .
                0x00000000                . = ALIGN (0x4)
 *(.vectortable)
 .vectortable   0x00000000       0xc0 ./Generated_Code/Vectors.o
                0x00000000                __vect_table
                0x000000c0                . = ALIGN (0x4)

.cfmprotect     0x00000400       0x10
                0x00000400                . = ALIGN (0x4)
 *(.cfmconfig)
 .cfmconfig     0x00000400       0x10 ./Generated_Code/Cpu.o
                0x00000400                _cfm
                0x00000410                . = ALIGN (0x4)

.text           0x00000410    0x18d04
                0x00000410                . = ALIGN (0x4)
 *(.text)
 .text          0x00000410       0x34 ./MQXLITE/psp/cortex_m/core/M0/boot.o
                0x00000410                __boot
 .text          0x00000444       0x14 c:/appz/freescale/cw mcu v10.6/cross_tools/arm-none-eabi-gcc-4_7_3/bin/../lib/gcc/arm-none-eabi/4.7.3/armv6-m\libgcc.a(_thumb1_case_sqi.o)
                0x00000444                __gnu_thumb1_case_sqi
 .text          0x00000458       0x14 c:/appz/freescale/cw mcu v10.6/cross_tools/arm-none-eabi-gcc-4_7_3/bin/../lib/gcc/arm-none-eabi/4.7.3/armv6-m\libgcc.a(_thumb1_case_uqi.o)
                0x00000458                __gnu_thumb1_case_uqi
 .text          0x0000046c       0x9c c:/appz/freescale/cw mcu v10.6/cross_tools/arm-none-eabi-gcc-4_7_3/bin/../lib/gcc/arm-none-eabi/4.7.3/armv6-m\libgcc.a(_udivsi3.o)
                0x0000046c                __aeabi_uidiv
                0x0000046c                __udivsi3
                0x000004f4                __aeabi_uidivmod
 .text          0x00000508       0xc0 c:/appz/freescale/cw mcu v10.6/cross_tools/arm-none-eabi-gcc-4_7_3/bin/../lib/gcc/arm-none-eabi/4.7.3/armv6-m\libgcc.a(_divsi3.o)
                0x00000508                __divsi3
                0x00000508                __aeabi_idiv
                0x000005b4                __aeabi_idivmod
 .text          0x000005c8        0x4 c:/appz/freescale/cw mcu v10.6/cross_tools/arm-none-eabi-gcc-4_7_3/bin/../lib/gcc/arm-none-eabi/4.7.3/armv6-m\libgcc.a(_dvmd_tls.o)
                0x000005c8                __aeabi_idiv0
                0x000005c8                __aeabi_ldiv0
 .text          0x000005cc       0x7c c:/appz/freescale/cw mcu v10.6/cross_tools/arm-none-eabi-gcc-4_7_3/bin/../lib/gcc/arm-none-eabi/4.7.3/armv6-m\libgcc.a(_arm_cmpdf2.o)
                0x000005cc                __aeabi_cdrcmple
                0x000005dc                __aeabi_cdcmple
                0x000005dc                __aeabi_cdcmpeq
                0x000005ec                __aeabi_dcmpeq
                0x000005f8                __aeabi_dcmplt
                0x0000060c                __aeabi_dcmple
                0x00000620                __aeabi_dcmpgt
                0x00000634                __aeabi_dcmpge
 .text          0x00000648       0x74 c:/appz/freescale/cw mcu v10.6/cross_tools/arm-none-eabi-gcc-4_7_3/bin/../lib/gcc/arm-none-eabi/4.7.3/armv6-m\libgcc.a(_arm_cmpsf2.o)
                0x00000648                __aeabi_cfrcmple
                0x00000650                __aeabi_cfcmpeq
                0x00000650                __aeabi_cfcmple
                0x00000660                __aeabi_fcmpeq
                0x0000066c                __aeabi_fcmplt
                0x00000680                __aeabi_fcmple
                0x00000694                __aeabi_fcmpgt
                0x000006a8                __aeabi_fcmpge
 .text          0x000006bc      0x3a4 c:/appz/freescale/cw mcu v10.6/cross_tools/arm-none-eabi-gcc-4_7_3/bin/../lib/gcc/arm-none-eabi/4.7.3/armv6-m\libgcc.a(addsf3.o)
                0x000006bc                __aeabi_fadd
 .text          0x00000a60      0x274 c:/appz/freescale/cw mcu v10.6/cross_tools/arm-none-eabi-gcc-4_7_3/bin/../lib/gcc/arm-none-eabi/4.7.3/armv6-m\libgcc.a(divsf3.o)
                0x00000a60                __aeabi_fdiv
 .text          0x00000cd4       0x50 c:/appz/freescale/cw mcu v10.6/cross_tools/arm-none-eabi-gcc-4_7_3/bin/../lib/gcc/arm-none-eabi/4.7.3/armv6-m\libgcc.a(eqsf2.o)
                0x00000cd4                __eqsf2
                0x00000cd4                __nesf2
 .text          0x00000d24       0x90 c:/appz/freescale/cw mcu v10.6/cross_tools/arm-none-eabi-gcc-4_7_3/bin/../lib/gcc/arm-none-eabi/4.7.3/armv6-m\libgcc.a(gesf2.o)
                0x00000d24                __gesf2
                0x00000d24                __gtsf2
 .text          0x00000db4       0x90 c:/appz/freescale/cw mcu v10.6/cross_tools/arm-none-eabi-gcc-4_7_3/bin/../lib/gcc/arm-none-eabi/4.7.3/armv6-m\libgcc.a(lesf2.o)
                0x00000db4                __ltsf2
                0x00000db4                __lesf2
 .text          0x00000e44      0x260 c:/appz/freescale/cw mcu v10.6/cross_tools/arm-none-eabi-gcc-4_7_3/bin/../lib/gcc/arm-none-eabi/4.7.3/armv6-m\libgcc.a(mulsf3.o)
                0x00000e44                __aeabi_fmul
 .text          0x000010a4      0x3ac c:/appz/freescale/cw mcu v10.6/cross_tools/arm-none-eabi-gcc-4_7_3/bin/../lib/gcc/arm-none-eabi/4.7.3/armv6-m\libgcc.a(subsf3.o)
                0x000010a4                __aeabi_fsub
 .text          0x00001450       0x40 c:/appz/freescale/cw mcu v10.6/cross_tools/arm-none-eabi-gcc-4_7_3/bin/../lib/gcc/arm-none-eabi/4.7.3/armv6-m\libgcc.a(fixsfsi.o)
                0x00001450                __aeabi_f2iz
 .text          0x00001490       0xa8 c:/appz/freescale/cw mcu v10.6/cross_tools/arm-none-eabi-gcc-4_7_3/bin/../lib/gcc/arm-none-eabi/4.7.3/armv6-m\libgcc.a(floatsisf.o)
                0x00001490                __aeabi_i2f
 .text          0x00001538      0x758 c:/appz/freescale/cw mcu v10.6/cross_tools/arm-none-eabi-gcc-4_7_3/bin/../lib/gcc/arm-none-eabi/4.7.3/armv6-m\libgcc.a(adddf3.o)
                0x00001538                __aeabi_dadd
 .text          0x00001c90      0x5b8 c:/appz/freescale/cw mcu v10.6/cross_tools/arm-none-eabi-gcc-4_7_3/bin/../lib/gcc/arm-none-eabi/4.7.3/armv6-m\libgcc.a(divdf3.o)
                0x00001c90                __aeabi_ddiv
 .text          0x00002248       0x7c c:/appz/freescale/cw mcu v10.6/cross_tools/arm-none-eabi-gcc-4_7_3/bin/../lib/gcc/arm-none-eabi/4.7.3/armv6-m\libgcc.a(eqdf2.o)
                0x00002248                __nedf2
                0x00002248                __eqdf2
 .text          0x000022c4       0xe8 c:/appz/freescale/cw mcu v10.6/cross_tools/arm-none-eabi-gcc-4_7_3/bin/../lib/gcc/arm-none-eabi/4.7.3/armv6-m\libgcc.a(gedf2.o)
                0x000022c4                __gedf2
                0x000022c4                __gtdf2
 .text          0x000023ac       0xd8 c:/appz/freescale/cw mcu v10.6/cross_tools/arm-none-eabi-gcc-4_7_3/bin/../lib/gcc/arm-none-eabi/4.7.3/armv6-m\libgcc.a(ledf2.o)
                0x000023ac                __ledf2
                0x000023ac                __ltdf2
 .text          0x00002484      0x4e4 c:/appz/freescale/cw mcu v10.6/cross_tools/arm-none-eabi-gcc-4_7_3/bin/../lib/gcc/arm-none-eabi/4.7.3/armv6-m\libgcc.a(muldf3.o)
                0x00002484                __aeabi_dmul
 .text          0x00002968      0x6f8 c:/appz/freescale/cw mcu v10.6/cross_tools/arm-none-eabi-gcc-4_7_3/bin/../lib/gcc/arm-none-eabi/4.7.3/armv6-m\libgcc.a(subdf3.o)
                0x00002968                __aeabi_dsub
 .text          0x00003060       0x68 c:/appz/freescale/cw mcu v10.6/cross_tools/arm-none-eabi-gcc-4_7_3/bin/../lib/gcc/arm-none-eabi/4.7.3/armv6-m\libgcc.a(fixdfsi.o)
                0x00003060                __aeabi_d2iz
 .text          0x000030c8       0x74 c:/appz/freescale/cw mcu v10.6/cross_tools/arm-none-eabi-gcc-4_7_3/bin/../lib/gcc/arm-none-eabi/4.7.3/armv6-m\libgcc.a(floatsidf.o)
                0x000030c8                __aeabi_i2d
 .text          0x0000313c       0xa8 c:/appz/freescale/cw mcu v10.6/cross_tools/arm-none-eabi-gcc-4_7_3/bin/../lib/gcc/arm-none-eabi/4.7.3/armv6-m\libgcc.a(extendsfdf2.o)
                0x0000313c                __aeabi_f2d
 .text          0x000031e4      0x134 c:/appz/freescale/cw mcu v10.6/cross_tools/arm-none-eabi-gcc-4_7_3/bin/../lib/gcc/arm-none-eabi/4.7.3/armv6-m\libgcc.a(truncdfsf2.o)
                0x000031e4                __aeabi_d2f
 .text          0x00003318       0x3c c:/appz/freescale/cw mcu v10.6/cross_tools/arm-none-eabi-gcc-4_7_3/bin/../lib/gcc/arm-none-eabi/4.7.3/armv6-m\libgcc.a(_clzsi2.o)
                0x00003318                __clzsi2
 *(.text*)
 .text.UART_Interrupt
                0x00003354       0xcc ./Generated_Code/UART.o
                0x00003354                UART_Interrupt
 .text.UART_Init
                0x00003420      0x108 ./Generated_Code/UART.o
                0x00003420                UART_Init
 .text.UART_ReceiveBlock
                0x00003528       0x2c ./Generated_Code/UART.o
                0x00003528                UART_ReceiveBlock
 .text.UART_SendBlock
                0x00003554       0x44 ./Generated_Code/UART.o
                0x00003554                UART_SendBlock
 .text.TestPin_MagCal_Time_Init
                0x00003598       0x48 ./Generated_Code/TestPin_MagCal_Time.o
                0x00003598                TestPin_MagCal_Time_Init
 .text.TestPin_MagCal_Time_ClrVal
                0x000035e0       0x10 ./Generated_Code/TestPin_MagCal_Time.o
                0x000035e0                TestPin_MagCal_Time_ClrVal
 .text.TestPin_MagCal_Time_SetVal
                0x000035f0       0x10 ./Generated_Code/TestPin_MagCal_Time.o
                0x000035f0                TestPin_MagCal_Time_SetVal
 .text.TestPin_KF_Time_Init
                0x00003600       0x48 ./Generated_Code/TestPin_KF_Time.o
                0x00003600                TestPin_KF_Time_Init
 .text.TestPin_KF_Time_ClrVal
                0x00003648       0x10 ./Generated_Code/TestPin_KF_Time.o
                0x00003648                TestPin_KF_Time_ClrVal
 .text.TestPin_KF_Time_SetVal
                0x00003658       0x10 ./Generated_Code/TestPin_KF_Time.o
                0x00003658                TestPin_KF_Time_SetVal
 .text.TU1_Init
                0x00003668       0x88 ./Generated_Code/TU1.o
                0x00003668                TU1_Init
 .text.TU1_GetPeriodTicks
                0x000036f0       0x10 ./Generated_Code/TU1.o
                0x000036f0                TU1_GetPeriodTicks
 .text.TU1_SetOffsetTicks
                0x00003700       0x18 ./Generated_Code/TU1.o
                0x00003700                TU1_SetOffsetTicks
 .text.SystemTimer1_Interrupt
                0x00003718       0x1c ./Generated_Code/SystemTimer1.o
                0x00003718                SystemTimer1_Interrupt
 .text.SystemTimer1_Init
                0x00003734       0x60 ./Generated_Code/SystemTimer1.o
                0x00003734                SystemTimer1_Init
 .text.SystemTimer1_Enable
                0x00003794       0x14 ./Generated_Code/SystemTimer1.o
                0x00003794                SystemTimer1_Enable
 .text.SystemTimer1_GetInputFrequency
                0x000037a8        0x8 ./Generated_Code/SystemTimer1.o
                0x000037a8                SystemTimer1_GetInputFrequency
 .text.SystemTimer1_GetPeriodTicks
                0x000037b0       0x14 ./Generated_Code/SystemTimer1.o
                0x000037b0                SystemTimer1_GetPeriodTicks
 .text.SystemTimer1_GetCounterValue
                0x000037c4        0xc ./Generated_Code/SystemTimer1.o
                0x000037c4                SystemTimer1_GetCounterValue
 .text.PWM1_Init
                0x000037d0       0x38 ./Generated_Code/PWM1.o
                0x000037d0                PWM1_Init
 .text.PWM1_SetRatio16
                0x00003808       0x34 ./Generated_Code/PWM1.o
                0x00003808                PWM1_SetRatio16
 .text.SystemTimer1_OnCounterRestart
                0x0000383c        0x8 ./Generated_Code/MQX1.o
                0x0000383c                SystemTimer1_OnCounterRestart
 .text.SystemTimer1_GetTicsPerSecond
                0x00003844       0x1c ./Generated_Code/MQX1.o
                0x00003844                SystemTimer1_GetTicsPerSecond
 .text.LED_RED_Init
                0x00003860       0x44 ./Generated_Code/LED_RED.o
                0x00003860                LED_RED_Init
 .text.LED_RED_SetVal
                0x000038a4       0x10 ./Generated_Code/LED_RED.o
                0x000038a4                LED_RED_SetVal
 .text.LED_GREEN_Init
                0x000038b4       0x44 ./Generated_Code/LED_GREEN.o
                0x000038b4                LED_GREEN_Init
 .text.LED_GREEN_SetVal
                0x000038f8       0x10 ./Generated_Code/LED_GREEN.o
                0x000038f8                LED_GREEN_SetVal
 .text.I2C_Interrupt
                0x00003908      0x164 ./Generated_Code/I2C.o
                0x00003908                I2C_Interrupt
 .text.I2C_Init
                0x00003a6c       0xc8 ./Generated_Code/I2C.o
                0x00003a6c                I2C_Init
 .text.I2C_MasterSendBlock
                0x00003b34       0xb0 ./Generated_Code/I2C.o
                0x00003b34                I2C_MasterSendBlock
 .text.I2C_MasterReceiveBlock
                0x00003be4       0xb0 ./Generated_Code/I2C.o
                0x00003be4                I2C_MasterReceiveBlock
 .text.I2C_SelectSlaveDevice
                0x00003c94       0x6c ./Generated_Code/I2C.o
                0x00003c94                I2C_SelectSlaveDevice
 .text.I2C_GetError
                0x00003d00       0x1c ./Generated_Code/I2C.o
                0x00003d00                I2C_GetError
 .text.I2C_CheckBus
                0x00003d1c       0x18 ./Generated_Code/I2C.o
                0x00003d1c                I2C_CheckBus
 .text.FTM_Interrupt
                0x00003d34       0x18 ./Generated_Code/FTM.o
                0x00003d34                FTM_Interrupt
 .text.FTM_Init
                0x00003d4c       0x7c ./Generated_Code/FTM.o
                0x00003d4c                FTM_Init
 .text.FTM_SetPeriodTicks
                0x00003dc8       0x24 ./Generated_Code/FTM.o
                0x00003dc8                FTM_SetPeriodTicks
 .text.Cpu_INT_NMIInterrupt
                0x00003dec        0x8 ./Generated_Code/Cpu.o
                0x00003dec                Cpu_INT_NMIInterrupt
 .text.Cpu_Interrupt
                0x00003df4        0x4 ./Generated_Code/Cpu.o
                0x00003df4                Cpu_Interrupt
 .text.__init_hardware
                0x00003df8      0x114 ./Generated_Code/Cpu.o
                0x00003df8                __init_hardware
 .text.PE_low_level_init
                0x00003f0c      0x10c ./Generated_Code/Cpu.o
                0x00003f0c                PE_low_level_init
 .text.BitIoLdd6_Init
                0x00004018       0x40 ./Generated_Code/BitIoLdd6.o
                0x00004018                BitIoLdd6_Init
 .text.BitIoLdd6_ClrVal
                0x00004058        0xc ./Generated_Code/BitIoLdd6.o
                0x00004058                BitIoLdd6_ClrVal
 .text.BitIoLdd6_SetVal
                0x00004064        0xc ./Generated_Code/BitIoLdd6.o
                0x00004064                BitIoLdd6_SetVal
 .text.BitIoLdd5_Init
                0x00004070       0x40 ./Generated_Code/BitIoLdd5.o
                0x00004070                BitIoLdd5_Init
 .text.BitIoLdd5_ClrVal
                0x000040b0        0xc ./Generated_Code/BitIoLdd5.o
                0x000040b0                BitIoLdd5_ClrVal
 .text.BitIoLdd5_SetVal
                0x000040bc        0xc ./Generated_Code/BitIoLdd5.o
                0x000040bc                BitIoLdd5_SetVal
 .text.BitIoLdd4_Init
                0x000040c8       0x40 ./Generated_Code/BitIoLdd4.o
                0x000040c8                BitIoLdd4_Init
 .text.BitIoLdd3_Init
                0x00004108       0x40 ./Generated_Code/BitIoLdd3.o
                0x00004108                BitIoLdd3_Init
 .text.BitIoLdd2_Init
                0x00004148       0x40 ./Generated_Code/BitIoLdd2.o
                0x00004148                BitIoLdd2_Init
 .text.BitIoLdd1_Init
                0x00004188       0x44 ./Generated_Code/BitIoLdd1.o
                0x00004188                BitIoLdd1_Init
 .text.BitIoLdd1_GetVal
                0x000041cc       0x24 ./Generated_Code/BitIoLdd1.o
                0x000041cc                BitIoLdd1_GetVal
 .text._time_delay_for
                0x000041f0       0xfc ./MQXLITE/kernel/time_ticks.o
                0x000041f0                _time_delay_for
 .text._time_delay_until
                0x000042ec       0xf0 ./MQXLITE/kernel/time_ticks.o
                0x000042ec                _time_delay_until
 .text._time_notify_kernel
                0x000043dc      0x144 ./MQXLITE/kernel/time_ticks.o
                0x000043dc                _time_notify_kernel
 .text._time_set_hwtick_function
                0x00004520       0x18 ./MQXLITE/kernel/time_ticks.o
                0x00004520                _time_set_hwtick_function
 .text._task_destroy_internal
                0x00004538      0x298 ./MQXLITE/kernel/task.o
                0x00004538                _task_destroy_internal
 .text._task_exit_function_internal
                0x000047d0       0x20 ./MQXLITE/kernel/task.o
                0x000047d0                _task_exit_function_internal
 .text._task_destroy
                0x000047f0        0xc ./MQXLITE/kernel/task.o
                0x000047f0                _task_destroy
 .text._task_set_error
                0x000047fc       0x34 ./MQXLITE/kernel/task.o
                0x000047fc                _task_set_error
 .text._task_init_internal
                0x00004830      0x2b4 ./MQXLITE/kernel/task.o
                0x00004830                _task_init_internal
 .text._task_create_at
                0x00004ae4      0x158 ./MQXLITE/kernel/task.o
                0x00004ae4                _task_create_at
 .text._task_fill_stack_internal
                0x00004c3c       0x34 ./MQXLITE/kernel/task.o
                0x00004c3c                _task_fill_stack_internal
 .text._task_ready_internal
                0x00004c70       0x28 ./MQXLITE/kernel/task.o
                0x00004c70                _task_ready_internal
 .text._task_set_error_td_internal
                0x00004c98       0x14 ./MQXLITE/kernel/task.o
                0x00004c98                _task_set_error_td_internal
 .text._mqxlite_init
                0x00004cac       0xe8 ./MQXLITE/kernel/mqxlite.o
                0x00004cac                _mqxlite_init
 .text._mqx_exit
                0x00004d94       0x30 ./MQXLITE/kernel/mqxlite.o
                0x00004d94                _mqx_exit
 .text._mqxlite
                0x00004dc4       0xb8 ./MQXLITE/kernel/mqxlite.o
                0x00004dc4                _mqxlite
 .text._mqx_set_cpu_type
                0x00004e7c        0xc ./MQXLITE/kernel/mqx_utils.o
                0x00004e7c                _mqx_set_cpu_type
 .text._mqx_init_kernel_data_internal
                0x00004e88      0x130 ./MQXLITE/kernel/mqx_utils.o
                0x00004e88                _mqx_init_kernel_data_internal
 .text._lwsem_create
                0x00004fb8       0x60 ./MQXLITE/kernel/lwsem.o
                0x00004fb8                _lwsem_create
 .text._lwsem_post
                0x00005018       0xb0 ./MQXLITE/kernel/lwsem.o
                0x00005018                _lwsem_post
 .text._lwsem_wait
                0x000050c8       0x94 ./MQXLITE/kernel/lwsem.o
                0x000050c8                _lwsem_wait
 .text._lwevent_create
                0x0000515c       0x80 ./MQXLITE/kernel/lwevent.o
                0x0000515c                _lwevent_create
 .text._lwevent_set
                0x000051dc      0x120 ./MQXLITE/kernel/lwevent.o
                0x000051dc                _lwevent_set
 .text._lwevent_wait_internal
                0x000052fc      0x104 ./MQXLITE/kernel/lwevent.o
                0x000052fc                _lwevent_wait_internal
 .text._lwevent_wait_for
                0x00005400       0x10 ./MQXLITE/kernel/lwevent.o
                0x00005400                _lwevent_wait_for
 .text._int_default_isr
                0x00005410       0x4c ./MQXLITE/kernel/int.o
                0x00005410                _int_default_isr
 .text._int_disable
                0x0000545c       0x1c ./MQXLITE/kernel/int.o
                0x0000545c                _int_disable
 .text._int_enable
                0x00005478       0x20 ./MQXLITE/kernel/int.o
                0x00005478                _int_enable
 .text._int_get_isr_data
                0x00005498       0x40 ./MQXLITE/kernel/int.o
                0x00005498                _int_get_isr_data
 .text._int_install_isr
                0x000054d8       0x60 ./MQXLITE/kernel/int.o
                0x000054d8                _int_install_isr
 .text._int_init
                0x00005538       0x70 ./MQXLITE/kernel/int.o
                0x00005538                _int_init
 .text._mqx_idle_task
                0x000055a8       0x1c ./MQXLITE/kernel/idletask.o
                0x000055a8                _mqx_idle_task
 .text._psp_destroy_stack_frame
                0x000055c4        0x4 ./MQXLITE/psp/cortex_m/stack_de.o
                0x000055c4                _psp_destroy_stack_frame
 .text._psp_build_stack_frame
                0x000055c8       0x44 ./MQXLITE/psp/cortex_m/stack_bu.o
                0x000055c8                _psp_build_stack_frame
 .text._psp_set_kernel_disable_level
                0x0000560c       0x78 ./MQXLITE/psp/cortex_m/sc_irdyq.o
                0x0000560c                _psp_set_kernel_disable_level
 .text._psp_init_readyqs
                0x00005684       0xf4 ./MQXLITE/psp/cortex_m/sc_irdyq.o
                0x00005684                _psp_init_readyqs
 .text._psp_normalize_ticks
                0x00005778       0x3c ./MQXLITE/psp/cortex_m/psp_tinm.o
                0x00005778                _psp_normalize_ticks
 .text._psp_add_ticks
                0x000057b4       0x40 ./MQXLITE/psp/cortex_m/psp_tiad.o
                0x000057b4                _psp_add_ticks
 .text._psp_int_init
                0x000057f4       0x14 ./MQXLITE/psp/cortex_m/psp_iinit.o
                0x000057f4                _psp_int_init
 .text._mem_zero
                0x00005808      0x130 ./MQXLITE/psp/cortex_m/mem_zero.o
                0x00005808                _mem_zero
 .text._int_set_vector_table
                0x00005938       0x20 ./MQXLITE/psp/cortex_m/int_vtab.o
                0x00005938                _int_set_vector_table
 .text._int_get_vector_table
                0x00005958       0x10 ./MQXLITE/psp/cortex_m/int_vtab.o
                0x00005958                _int_get_vector_table
 .text._psp_int_install
                0x00005968       0x14 ./MQXLITE/psp/cortex_m/int_inst.o
                0x00005968                _psp_int_install
 .text.__thumb_startup
                0x0000597c       0x3c ./Project_Settings/Startup_Code/__arm_start.o
                0x0000597c                __thumb_startup
 .text._ExitProcess
                0x000059b8        0x8 ./Project_Settings/Startup_Code/__arm_end.o
                0x000059b8                _ExitProcess
 .text.UserStartup
                0x000059c0       0x18 ./Sources/user_tasks.o
                0x000059c0                UserStartup
 .text.UserHighFrequencyTaskInit
                0x000059d8        0x4 ./Sources/user_tasks.o
                0x000059d8                UserHighFrequencyTaskInit
 .text.UserMediumFrequencyTaskInit
                0x000059dc       0x10 ./Sources/user_tasks.o
                0x000059dc                UserMediumFrequencyTaskInit
 .text.UserHighFrequencyTaskRun
                0x000059ec      0x164 ./Sources/user_tasks.o
                0x000059ec                UserHighFrequencyTaskRun
 .text.UserMediumFrequencyTaskRun
                0x00005b50       0x50 ./Sources/user_tasks.o
                0x00005b50                UserMediumFrequencyTaskRun
 .text.RdSensData_Init
                0x00005ba0       0x58 ./Sources/tasks_func.o
                0x00005ba0                RdSensData_Init
 .text.Fusion_Init
                0x00005bf8       0x98 ./Sources/tasks_func.o
                0x00005bf8                Fusion_Init
 .text.RdSensData_Run
                0x00005c90      0x32c ./Sources/tasks_func.o
                0x00005c90                RdSensData_Run
 .text.Fusion_Run
                0x00005fbc      0x2ec ./Sources/tasks_func.o
                0x00005fbc                Fusion_Run
 .text.MagCal_Run
                0x000062a8      0x11c ./Sources/tasks_func.o
                0x000062a8                MagCal_Run
 .text.Main_task
                0x000063c4       0xac ./Sources/mqx_tasks.o
                0x000063c4                Main_task
 .text.RdSensData_task
                0x00006470       0x40 ./Sources/mqx_tasks.o
                0x00006470                RdSensData_task
 .text.Fusion_task
                0x000064b0       0x50 ./Sources/mqx_tasks.o
                0x000064b0                Fusion_task
 .text.MagCal_task
                0x00006500       0x38 ./Sources/mqx_tasks.o
                0x00006500                MagCal_task
 .text.startup.main
                0x00006538        0xc ./Sources/main.o
                0x00006538                main
 .text.MPL3115_Init
                0x00006544       0xcc ./Sources/FSL_utils.o
                0x00006544                MPL3115_Init
 .text.FXOS8700_Init
                0x00006610      0x184 ./Sources/FSL_utils.o
                0x00006610                FXOS8700_Init
 .text.FXAS21000_Init
                0x00006794       0xd4 ./Sources/FSL_utils.o
                0x00006794                FXAS21000_Init
 .text.MPL3115_ReadData
                0x00006868       0x90 ./Sources/FSL_utils.o
                0x00006868                MPL3115_ReadData
 .text.FXOS8700_ReadData
                0x000068f8      0x128 ./Sources/FSL_utils.o
                0x000068f8                FXOS8700_ReadData
 .text.FXAS21000_ReadData
                0x00006a20       0xec ./Sources/FSL_utils.o
                0x00006a20                FXAS21000_ReadData
 .text.Cpu_OnNMIINT
                0x00006b0c        0x4 ./Sources/Events.o
                0x00006b0c                Cpu_OnNMIINT
 .text.FTM_OnCounterRestart
                0x00006b10       0x1c ./Sources/Events.o
                0x00006b10                FTM_OnCounterRestart
 .text.UART_OnBlockSent
                0x00006b2c        0x4 ./Sources/Events.o
                0x00006b2c                UART_OnBlockSent
 .text.I2C_OnMasterBlockSent
                0x00006b30       0x14 ./Sources/Events.o
                0x00006b30                I2C_OnMasterBlockSent
 .text.I2C_OnMasterBlockReceived
                0x00006b44       0x14 ./Sources/Events.o
                0x00006b44                I2C_OnMasterBlockReceived
 .text.UART_OnTxComplete
                0x00006b58        0x4 ./Sources/Events.o
                0x00006b58                UART_OnTxComplete
 .text.UART_OnBlockReceived
                0x00006b5c      0x170 ./Sources/Events.o
                0x00006b5c                UART_OnBlockReceived
 .text.fInit_1DOF_P_BASIC
                0x00006ccc       0x40 D:/xuser00/Ansoft/XSFK_KL25Z/XSFK_KL25Z/Library\libFusion.a(baranski_kalman.o)
                0x00006ccc                fInit_1DOF_P_BASIC
 .text.fInit_3DOF_G_BASIC
                0x00006d0c       0x44 D:/xuser00/Ansoft/XSFK_KL25Z/XSFK_KL25Z/Library\libFusion.a(baranski_kalman.o)
                0x00006d0c                fInit_3DOF_G_BASIC
 .text.fInit_3DOF_B_BASIC
                0x00006d50       0x44 D:/xuser00/Ansoft/XSFK_KL25Z/XSFK_KL25Z/Library\libFusion.a(baranski_kalman.o)
                0x00006d50                fInit_3DOF_B_BASIC
 .text.fInit_3DOF_Y_BASIC
                0x00006d94       0x3c D:/xuser00/Ansoft/XSFK_KL25Z/XSFK_KL25Z/Library\libFusion.a(baranski_kalman.o)
                0x00006d94                fInit_3DOF_Y_BASIC
 .text.fInit_6DOF_GB_BASIC
                0x00006dd0       0x44 D:/xuser00/Ansoft/XSFK_KL25Z/XSFK_KL25Z/Library\libFusion.a(baranski_kalman.o)
                0x00006dd0                fInit_6DOF_GB_BASIC
 .text.fInit_6DOF_GY_KALMAN
                0x00006e14      0x36c D:/xuser00/Ansoft/XSFK_KL25Z/XSFK_KL25Z/Library\libFusion.a(baranski_kalman.o)
                0x00006e14                fInit_6DOF_GY_KALMAN
 .text.fInit_9DOF_GBY_KALMAN
                0x00007180      0x664 D:/xuser00/Ansoft/XSFK_KL25Z/XSFK_KL25Z/Library\libFusion.a(baranski_kalman.o)
                0x00007180                fInit_9DOF_GBY_KALMAN
 .text.fRun_1DOF_P_BASIC
                0x000077e4       0x28 D:/xuser00/Ansoft/XSFK_KL25Z/XSFK_KL25Z/Library\libFusion.a(baranski_kalman.o)
                0x000077e4                fRun_1DOF_P_BASIC
 .text.fRun_3DOF_G_BASIC
                0x0000780c      0x130 D:/xuser00/Ansoft/XSFK_KL25Z/XSFK_KL25Z/Library\libFusion.a(baranski_kalman.o)
                0x0000780c                fRun_3DOF_G_BASIC
 .text.fRun_3DOF_B_BASIC
                0x0000793c      0x130 D:/xuser00/Ansoft/XSFK_KL25Z/XSFK_KL25Z/Library\libFusion.a(baranski_kalman.o)
                0x0000793c                fRun_3DOF_B_BASIC
 .text.fRun_3DOF_Y_BASIC
                0x00007a6c      0x144 D:/xuser00/Ansoft/XSFK_KL25Z/XSFK_KL25Z/Library\libFusion.a(baranski_kalman.o)
                0x00007a6c                fRun_3DOF_Y_BASIC
 .text.security_check
                0x00007bb0      0x198 D:/xuser00/Ansoft/XSFK_KL25Z/XSFK_KL25Z/Library\libFusion.a(baranski_kalman.o)
                0x00007bb0                security_check
 .text.fRun_9DOF_GBY_KALMAN
                0x00007d48     0x3da4 D:/xuser00/Ansoft/XSFK_KL25Z/XSFK_KL25Z/Library\libFusion.a(baranski_kalman.o)
                0x00007d48                fRun_9DOF_GBY_KALMAN
 .text.fRun_6DOF_GY_KALMAN
                0x0000baec     0x26b8 D:/xuser00/Ansoft/XSFK_KL25Z/XSFK_KL25Z/Library\libFusion.a(baranski_kalman.o)
                0x0000baec                fRun_6DOF_GY_KALMAN
 .text.fRun_6DOF_GB_BASIC
                0x0000e1a4      0x19c D:/xuser00/Ansoft/XSFK_KL25Z/XSFK_KL25Z/Library\libFusion.a(baranski_kalman.o)
                0x0000e1a4                fRun_6DOF_GB_BASIC
 .text.f3x3matrixAeqI
                0x0000e340       0x1c D:/xuser00/Ansoft/XSFK_KL25Z/XSFK_KL25Z/Library\libFusion.a(matrix.o)
                0x0000e340                f3x3matrixAeqI
 .text.f3x3matrixAeqScalar
                0x0000e35c       0x14 D:/xuser00/Ansoft/XSFK_KL25Z/XSFK_KL25Z/Library\libFusion.a(matrix.o)
                0x0000e35c                f3x3matrixAeqScalar
 .text.f3x3matrixAeqAxScalar
                0x0000e370       0x60 D:/xuser00/Ansoft/XSFK_KL25Z/XSFK_KL25Z/Library\libFusion.a(matrix.o)
                0x0000e370                f3x3matrixAeqAxScalar
 .text.f3x3matrixAeqMinusA
                0x0000e3d0       0x3c D:/xuser00/Ansoft/XSFK_KL25Z/XSFK_KL25Z/Library\libFusion.a(matrix.o)
                0x0000e3d0                f3x3matrixAeqMinusA
 .text.f3x3matrixAeqInvSymB
                0x0000e40c      0x178 D:/xuser00/Ansoft/XSFK_KL25Z/XSFK_KL25Z/Library\libFusion.a(matrix.o)
                0x0000e40c                f3x3matrixAeqInvSymB
 .text.f3x3matrixDetA
                0x0000e584       0xa0 D:/xuser00/Ansoft/XSFK_KL25Z/XSFK_KL25Z/Library\libFusion.a(matrix.o)
                0x0000e584                f3x3matrixDetA
 *fill*         0x0000e624        0x4 00
 .text.eigencompute
                0x0000e628      0x738 D:/xuser00/Ansoft/XSFK_KL25Z/XSFK_KL25Z/Library\libFusion.a(matrix.o)
                0x0000e628                eigencompute
 .text.fmatrixAeqInvA
                0x0000ed60      0x548 D:/xuser00/Ansoft/XSFK_KL25Z/XSFK_KL25Z/Library\libFusion.a(matrix.o)
                0x0000ed60                fmatrixAeqInvA
 .text.fInitMagCalibration
                0x0000f2a8      0x114 D:/xuser00/Ansoft/XSFK_KL25Z/XSFK_KL25Z/Library\libFusion.a(magnetic.o)
                0x0000f2a8                fInitMagCalibration
 .text.iUpdateMagnetometerBuffer
                0x0000f3bc      0x4c8 D:/xuser00/Ansoft/XSFK_KL25Z/XSFK_KL25Z/Library\libFusion.a(magnetic.o)
                0x0000f3bc                iUpdateMagnetometerBuffer
 .text.fInvertMagCal
                0x0000f884      0x198 D:/xuser00/Ansoft/XSFK_KL25Z/XSFK_KL25Z/Library\libFusion.a(magnetic.o)
                0x0000f884                fInvertMagCal
 .text.fUpdateCalibration10EIG
                0x0000fa1c      0xbf4 D:/xuser00/Ansoft/XSFK_KL25Z/XSFK_KL25Z/Library\libFusion.a(magnetic.o)
                0x0000fa1c                fUpdateCalibration10EIG
 .text.fUpdateCalibration7EIG
                0x00010610      0x6f8 D:/xuser00/Ansoft/XSFK_KL25Z/XSFK_KL25Z/Library\libFusion.a(magnetic.o)
                0x00010610                fUpdateCalibration7EIG
 .text.fUpdateCalibration4INV
                0x00010d08      0x8cc D:/xuser00/Ansoft/XSFK_KL25Z/XSFK_KL25Z/Library\libFusion.a(magnetic.o)
                0x00010d08                fUpdateCalibration4INV
 .text.fasin_deg
                0x000115d4      0x154 D:/xuser00/Ansoft/XSFK_KL25Z/XSFK_KL25Z/Library\libFusion.a(approximations.o)
                0x000115d4                fasin_deg
 .text.facos_deg
                0x00011728      0x284 D:/xuser00/Ansoft/XSFK_KL25Z/XSFK_KL25Z/Library\libFusion.a(approximations.o)
                0x00011728                facos_deg
 .text.fatan_deg
                0x000119ac      0x11c D:/xuser00/Ansoft/XSFK_KL25Z/XSFK_KL25Z/Library\libFusion.a(approximations.o)
                0x000119ac                fatan_deg
 .text.fatan2_deg
                0x00011ac8      0x37c D:/xuser00/Ansoft/XSFK_KL25Z/XSFK_KL25Z/Library\libFusion.a(approximations.o)
                0x00011ac8                fatan2_deg
 .text.f3DOFTiltNED
                0x00011e44      0x130 D:/xuser00/Ansoft/XSFK_KL25Z/XSFK_KL25Z/Library\libFusion.a(orientation.o)
                0x00011e44                f3DOFTiltNED
 .text.f3DOFTiltAndroid
                0x00011f74        0x8 D:/xuser00/Ansoft/XSFK_KL25Z/XSFK_KL25Z/Library\libFusion.a(orientation.o)
                0x00011f74                f3DOFTiltAndroid
 .text.f3DOFTiltWin8
                0x00011f7c      0x16c D:/xuser00/Ansoft/XSFK_KL25Z/XSFK_KL25Z/Library\libFusion.a(orientation.o)
                0x00011f7c                f3DOFTiltWin8
 .text.f3DOFMagnetometerMatrixNED
                0x000120e8       0x6c D:/xuser00/Ansoft/XSFK_KL25Z/XSFK_KL25Z/Library\libFusion.a(orientation.o)
                0x000120e8                f3DOFMagnetometerMatrixNED
 .text.f3DOFMagnetometerMatrixAndroid
                0x00012154       0x6c D:/xuser00/Ansoft/XSFK_KL25Z/XSFK_KL25Z/Library\libFusion.a(orientation.o)
                0x00012154                f3DOFMagnetometerMatrixAndroid
 .text.f3DOFMagnetometerMatrixWin8
                0x000121c0       0x6c D:/xuser00/Ansoft/XSFK_KL25Z/XSFK_KL25Z/Library\libFusion.a(orientation.o)
                0x000121c0                f3DOFMagnetometerMatrixWin8
 .text.feCompassNED
                0x0001222c      0x2fc D:/xuser00/Ansoft/XSFK_KL25Z/XSFK_KL25Z/Library\libFusion.a(orientation.o)
                0x0001222c                feCompassNED
 .text.feCompassAndroid
                0x00012528      0x2fc D:/xuser00/Ansoft/XSFK_KL25Z/XSFK_KL25Z/Library\libFusion.a(orientation.o)
                0x00012528                feCompassAndroid
 .text.feCompassWin8
                0x00012824      0x310 D:/xuser00/Ansoft/XSFK_KL25Z/XSFK_KL25Z/Library\libFusion.a(orientation.o)
                0x00012824                feCompassWin8
 .text.fNEDAnglesDegFromRotationMatrix
                0x00012b34       0xec D:/xuser00/Ansoft/XSFK_KL25Z/XSFK_KL25Z/Library\libFusion.a(orientation.o)
                0x00012b34                fNEDAnglesDegFromRotationMatrix
 .text.fAndroidAnglesDegFromRotationMatrix
                0x00012c20       0xec D:/xuser00/Ansoft/XSFK_KL25Z/XSFK_KL25Z/Library\libFusion.a(orientation.o)
                0x00012c20                fAndroidAnglesDegFromRotationMatrix
 .text.fWin8AnglesDegFromRotationMatrix
                0x00012d0c      0x17c D:/xuser00/Ansoft/XSFK_KL25Z/XSFK_KL25Z/Library\libFusion.a(orientation.o)
                0x00012d0c                fWin8AnglesDegFromRotationMatrix
 .text.fQuaternionFromRotationVectorDeg
                0x00012e88      0x194 D:/xuser00/Ansoft/XSFK_KL25Z/XSFK_KL25Z/Library\libFusion.a(orientation.o)
                0x00012e88                fQuaternionFromRotationVectorDeg
 .text.fQuaternionFromRotationMatrix
                0x0001301c      0x174 D:/xuser00/Ansoft/XSFK_KL25Z/XSFK_KL25Z/Library\libFusion.a(orientation.o)
                0x0001301c                fQuaternionFromRotationMatrix
 .text.fRotationMatrixFromQuaternion
                0x00013190      0x120 D:/xuser00/Ansoft/XSFK_KL25Z/XSFK_KL25Z/Library\libFusion.a(orientation.o)
                0x00013190                fRotationMatrixFromQuaternion
 .text.fRotationVectorDegFromQuaternion
                0x000132b0       0xb8 D:/xuser00/Ansoft/XSFK_KL25Z/XSFK_KL25Z/Library\libFusion.a(orientation.o)
                0x000132b0                fRotationVectorDegFromQuaternion
 .text.fLPFOrientationQuaternion
                0x00013368      0x4dc D:/xuser00/Ansoft/XSFK_KL25Z/XSFK_KL25Z/Library\libFusion.a(orientation.o)
                0x00013368                fLPFOrientationQuaternion
 .text.fLPFScalar
                0x00013844       0x2c D:/xuser00/Ansoft/XSFK_KL25Z/XSFK_KL25Z/Library\libFusion.a(orientation.o)
                0x00013844                fLPFScalar
 .text.qAeqBxC  0x00013870      0x148 D:/xuser00/Ansoft/XSFK_KL25Z/XSFK_KL25Z/Library\libFusion.a(orientation.o)
                0x00013870                qAeqBxC
 .text.qAeqAxB  0x000139b8      0x138 D:/xuser00/Ansoft/XSFK_KL25Z/XSFK_KL25Z/Library\libFusion.a(orientation.o)
                0x000139b8                qAeqAxB
 .text.fqeqNormq
                0x00013af0       0xd0 D:/xuser00/Ansoft/XSFK_KL25Z/XSFK_KL25Z/Library\libFusion.a(orientation.o)
                0x00013af0                fqeqNormq
 .text.fqAeq1   0x00013bc0       0x10 D:/xuser00/Ansoft/XSFK_KL25Z/XSFK_KL25Z/Library\libFusion.a(orientation.o)
                0x00013bc0                fqAeq1
 .text.sprintf  0x00013bd0       0x1a C:/Appz/Freescale/CW MCU v10.6/MCU/ARM_GCC_Support/ewl/lib/armv6-m\libc.a(sprintf.o)
                0x00013bd0                sprintf
 .text.__StringWrite
                0x00013bea       0x26 C:/Appz/Freescale/CW MCU v10.6/MCU/ARM_GCC_Support/ewl/lib/armv6-m\libc.a(vsnprintf.o)
                0x00013bea                __StringWrite
 .text.vsnprintf
                0x00013c10       0x38 C:/Appz/Freescale/CW MCU v10.6/MCU/ARM_GCC_Support/ewl/lib/armv6-m\libc.a(vsnprintf.o)
                0x00013c10                vsnprintf
 .text.exit     0x00013c48       0x38 C:/Appz/Freescale/CW MCU v10.6/MCU/ARM_GCC_Support/ewl/lib/armv6-m\libc.a(exit.o)
                0x00013c48                exit
 .text.memcpy   0x00013c80       0x12 C:/Appz/Freescale/CW MCU v10.6/MCU/ARM_GCC_Support/ewl/lib/armv6-m\libc.a(memcpy.o)
                0x00013c80                memcpy
 .text.memset   0x00013c92        0xc C:/Appz/Freescale/CW MCU v10.6/MCU/ARM_GCC_Support/ewl/lib/armv6-m\libc.a(memset.o)
                0x00013c92                memset
 *fill*         0x00013c9e        0x2 00
 .text.long2str.isra.0
                0x00013ca0      0x19c C:/Appz/Freescale/CW MCU v10.6/MCU/ARM_GCC_Support/ewl/lib/armv6-m\libc.a(printformat_fp.o)
 *fill*         0x00013e3c        0x4 00
 .text.__pformatterFP
                0x00013e40      0x858 C:/Appz/Freescale/CW MCU v10.6/MCU/ARM_GCC_Support/ewl/lib/armv6-m\libc.a(printformat_fp.o)
                0x00013e40                __pformatterFP
 .text.__sformatter_FP
                0x00014698      0x740 C:/Appz/Freescale/CW MCU v10.6/MCU/ARM_GCC_Support/ewl/lib/armv6-m\libc.a(scanformat_fp.o)
                0x00014698                __sformatter_FP
 .text.isalpha  0x00014dd8       0x20 C:/Appz/Freescale/CW MCU v10.6/MCU/ARM_GCC_Support/ewl/lib/armv6-m\libc.a(ctype_aeabi.o)
                0x00014dd8                isalpha
 .text.isspace  0x00014df8       0x20 C:/Appz/Freescale/CW MCU v10.6/MCU/ARM_GCC_Support/ewl/lib/armv6-m\libc.a(ctype_aeabi.o)
                0x00014df8                isspace
 .text.isupper  0x00014e18       0x20 C:/Appz/Freescale/CW MCU v10.6/MCU/ARM_GCC_Support/ewl/lib/armv6-m\libc.a(ctype_aeabi.o)
                0x00014e18                isupper
 .text.isxdigit
                0x00014e38       0x20 C:/Appz/Freescale/CW MCU v10.6/MCU/ARM_GCC_Support/ewl/lib/armv6-m\libc.a(ctype_aeabi.o)
                0x00014e38                isxdigit
 .text.toupper  0x00014e58        0xe C:/Appz/Freescale/CW MCU v10.6/MCU/ARM_GCC_Support/ewl/lib/armv6-m\libc.a(ctype_aeabi.o)
                0x00014e58                toupper
 *fill*         0x00014e66        0x2 00
 .text.__strtold
                0x00014e68      0x6d0 C:/Appz/Freescale/CW MCU v10.6/MCU/ARM_GCC_Support/ewl/lib/armv6-m\libc.a(__strtold.o)
                0x00014e68                __strtold
 .text.__strtoul
                0x00015538      0x1ce C:/Appz/Freescale/CW MCU v10.6/MCU/ARM_GCC_Support/ewl/lib/armv6-m\libc.a(__strtoul.o)
                0x00015538                __strtoul
 .text.__fill_mem
                0x00015706       0x7e C:/Appz/Freescale/CW MCU v10.6/MCU/ARM_GCC_Support/ewl/lib/armv6-m\libc.a(__filll_mem.o)
                0x00015706                __fill_mem
 .text.memchr   0x00015784       0x1a C:/Appz/Freescale/CW MCU v10.6/MCU/ARM_GCC_Support/ewl/lib/armv6-m\libc.a(memchr.o)
                0x00015784                memchr
 .text.strchr   0x0001579e       0x1e C:/Appz/Freescale/CW MCU v10.6/MCU/ARM_GCC_Support/ewl/lib/armv6-m\libc.a(strchr.o)
                0x0001579e                strchr
 .text.strcpy   0x000157bc       0x10 C:/Appz/Freescale/CW MCU v10.6/MCU/ARM_GCC_Support/ewl/lib/armv6-m\libc.a(strcpy.o)
                0x000157bc                strcpy
 .text.strlen   0x000157cc       0x10 C:/Appz/Freescale/CW MCU v10.6/MCU/ARM_GCC_Support/ewl/lib/armv6-m\libc.a(strlen.o)
                0x000157cc                strlen
 *fill*         0x000157dc        0x4 00
 .text.__num2dec
                0x000157e0      0x250 C:/Appz/Freescale/CW MCU v10.6/MCU/ARM_GCC_Support/ewl/lib/armv6-m\libm.a(ansi_fp.o)
                0x000157e0                __num2dec
 .text.__dec2num
                0x00015a30      0x168 C:/Appz/Freescale/CW MCU v10.6/MCU/ARM_GCC_Support/ewl/lib/armv6-m\libm.a(ansi_fp.o)
                0x00015a30                __dec2num
 .text.__round_decimal
                0x00015b98       0x98 C:/Appz/Freescale/CW MCU v10.6/MCU/ARM_GCC_Support/ewl/lib/armv6-m\libm.a(ansi_fp.o)
                0x00015b98                __round_decimal
 .text.__fpclassifyf
                0x00015c30       0x2a C:/Appz/Freescale/CW MCU v10.6/MCU/ARM_GCC_Support/ewl/lib/armv6-m\libm.a(math_api.o)
                0x00015c30                __fpclassifyf
 .text.__signbitd
                0x00015c5a        0x4 C:/Appz/Freescale/CW MCU v10.6/MCU/ARM_GCC_Support/ewl/lib/armv6-m\libm.a(math_api.o)
                0x00015c5a                __signbitd
 *fill*         0x00015c5e        0x2 00
 .text.__fpclassifyd
                0x00015c60       0x38 C:/Appz/Freescale/CW MCU v10.6/MCU/ARM_GCC_Support/ewl/lib/armv6-m\libm.a(math_api.o)
                0x00015c60                __fpclassifyd
 .text.frexp    0x00015c98       0x80 C:/Appz/Freescale/CW MCU v10.6/MCU/ARM_GCC_Support/ewl/lib/armv6-m\libm.a(s_frexp.o)
                0x00015c98                frexp
 .text.sinf     0x00015d18       0x94 C:/Appz/Freescale/CW MCU v10.6/MCU/ARM_GCC_Support/ewl/lib/armv6-m\libm.a(s_sinf.o)
                0x00015d18                sinf
 .text.acosf    0x00015dac        0x8 C:/Appz/Freescale/CW MCU v10.6/MCU/ARM_GCC_Support/ewl/lib/armv6-m\libm.a(w_acosf.o)
                0x00015dac                acosf
 .text.pow      0x00015db4        0x8 C:/Appz/Freescale/CW MCU v10.6/MCU/ARM_GCC_Support/ewl/lib/armv6-m\libm.a(w_pow.o)
                0x00015db4                pow
 .text.powf     0x00015dbc        0x8 C:/Appz/Freescale/CW MCU v10.6/MCU/ARM_GCC_Support/ewl/lib/armv6-m\libm.a(w_powf.o)
                0x00015dbc                powf
 .text.sqrtf    0x00015dc4        0x8 C:/Appz/Freescale/CW MCU v10.6/MCU/ARM_GCC_Support/ewl/lib/armv6-m\libm.a(w_sqrtf.o)
                0x00015dc4                sqrtf
 .text.__ieee754_acosf
                0x00015dcc      0x308 C:/Appz/Freescale/CW MCU v10.6/MCU/ARM_GCC_Support/ewl/lib/armv6-m\libm.a(e_acosf.o)
                0x00015dcc                __ieee754_acosf
 *fill*         0x000160d4        0x4 00
 .text.__ieee754_pow
                0x000160d8      0xb70 C:/Appz/Freescale/CW MCU v10.6/MCU/ARM_GCC_Support/ewl/lib/armv6-m\libm.a(e_pow.o)
                0x000160d8                __ieee754_pow
 .text.__ieee754_powf
                0x00016c48      0x74c C:/Appz/Freescale/CW MCU v10.6/MCU/ARM_GCC_Support/ewl/lib/armv6-m\libm.a(e_powf.o)
                0x00016c48                __ieee754_powf
 .text.__ieee754_rem_pio2f
                0x00017394      0x2bc C:/Appz/Freescale/CW MCU v10.6/MCU/ARM_GCC_Support/ewl/lib/armv6-m\libm.a(e_rem_pio2f.o)
                0x00017394                __ieee754_rem_pio2f
 .text.__ieee754_sqrtf
                0x00017650       0xb8 C:/Appz/Freescale/CW MCU v10.6/MCU/ARM_GCC_Support/ewl/lib/armv6-m\libm.a(e_sqrtf.o)
                0x00017650                __ieee754_sqrtf
 .text.__kernel_cosf
                0x00017708      0x140 C:/Appz/Freescale/CW MCU v10.6/MCU/ARM_GCC_Support/ewl/lib/armv6-m\libm.a(k_cosf.o)
                0x00017708                __kernel_cosf
 .text.__kernel_rem_pio2f
                0x00017848      0x584 C:/Appz/Freescale/CW MCU v10.6/MCU/ARM_GCC_Support/ewl/lib/armv6-m\libm.a(k_rem_pio2f.o)
                0x00017848                __kernel_rem_pio2f
 .text.__kernel_sinf
                0x00017dcc       0xf4 C:/Appz/Freescale/CW MCU v10.6/MCU/ARM_GCC_Support/ewl/lib/armv6-m\libm.a(k_sinf.o)
                0x00017dcc                __kernel_sinf
 .text.floorf   0x00017ec0       0x74 C:/Appz/Freescale/CW MCU v10.6/MCU/ARM_GCC_Support/ewl/lib/armv6-m\libm.a(s_floorf.o)
                0x00017ec0                floorf
 .text.scalbnf  0x00017f34       0xb0 C:/Appz/Freescale/CW MCU v10.6/MCU/ARM_GCC_Support/ewl/lib/armv6-m\libm.a(s_scalbnf.o)
                0x00017f34                scalbnf
 .text.scalbn   0x00017fe4       0x14 C:/Appz/Freescale/CW MCU v10.6/MCU/ARM_GCC_Support/ewl/lib/armv6-m\libm.a(scalbn.o)
                0x00017fe4                scalbn
 .text.sqrt     0x00017ff8        0x8 C:/Appz/Freescale/CW MCU v10.6/MCU/ARM_GCC_Support/ewl/lib/armv6-m\libm.a(w_sqrt.o)
                0x00017ff8                sqrt
 .text.__ieee754_sqrt
                0x00018000      0x17c C:/Appz/Freescale/CW MCU v10.6/MCU/ARM_GCC_Support/ewl/lib/armv6-m\libm.a(e_sqrt.o)
                0x00018000                __ieee754_sqrt
 *fill*         0x0001817c        0x4 00
 .text.ldexp    0x00018180      0x148 C:/Appz/Freescale/CW MCU v10.6/MCU/ARM_GCC_Support/ewl/lib/armv6-m\libm.a(s_ldexp.o)
                0x00018180                ldexp
 .text.__init_cpp
                0x000182c8       0x48 C:/Appz/Freescale/CW MCU v10.6/MCU/ARM_GCC_Support/ewl/lib/armv6-m\librt.a(gcc_ctor_dtor.o)
                0x000182c8                __init_cpp
 .text.__fini_cpp
                0x00018310       0x34 C:/Appz/Freescale/CW MCU v10.6/MCU/ARM_GCC_Support/ewl/lib/armv6-m\librt.a(gcc_ctor_dtor.o)
                0x00018310                __fini_cpp
 .text.__copy_rom_section
                0x00018344       0x48 C:/Appz/Freescale/CW MCU v10.6/MCU/ARM_GCC_Support/ewl/lib/armv6-m\librt.a(ROMCopy.o)
                0x00018344                __copy_rom_section
 .text.__copy_rom_sections_to_ram
                0x0001838c       0x34 C:/Appz/Freescale/CW MCU v10.6/MCU/ARM_GCC_Support/ewl/lib/armv6-m\librt.a(ROMCopy.o)
                0x0001838c                __copy_rom_sections_to_ram
 .text.__destroy_global_chain
                0x000183c0       0x1c C:/Appz/Freescale/CW MCU v10.6/MCU/ARM_GCC_Support/ewl/lib/armv6-m\librt.a(__arm_eabi_init.o)
                0x000183c0                __destroy_global_chain
 .text.__init_registers
                0x000183dc       0x1c C:/Appz/Freescale/CW MCU v10.6/MCU/ARM_GCC_Support/ewl/lib/armv6-m\librt.a(__arm_eabi_init.o)
                0x000183dc                __init_registers
 .text.__init_user
                0x000183f8        0x4 C:/Appz/Freescale/CW MCU v10.6/MCU/ARM_GCC_Support/ewl/lib/armv6-m\librt.a(__arm_eabi_init.o)
                0x000183f8                __init_user
 .text.__setjmp
                0x000183fc       0x1c C:/Appz/Freescale/CW MCU v10.6/MCU/ARM_GCC_Support/ewl/lib/armv6-m\librt.a(setjmp.o)
                0x000183fc                __setjmp
 .text.longjmp  0x00018418       0x20 C:/Appz/Freescale/CW MCU v10.6/MCU/ARM_GCC_Support/ewl/lib/armv6-m\librt.a(setjmp.o)
                0x00018418                longjmp
 .text.sys_exit
                0x00018438       0x20 C:/Appz/Freescale/CW MCU v10.6/MCU/ARM_GCC_Support/ewl/lib/armv6-m\libhosted.a(semihosted_console_io.o)
                0x00018438                sys_exit
 .text.sys_open
                0x00018458        0xc C:/Appz/Freescale/CW MCU v10.6/MCU/ARM_GCC_Support/ewl/lib/armv6-m\libhosted.a(semihosted_file_io.o)
                0x00018458                sys_open
 .text.__open_file
                0x00018464       0x5c C:/Appz/Freescale/CW MCU v10.6/MCU/ARM_GCC_Support/ewl/lib/armv6-m\libhosted.a(semihosted_file_io.o)
                0x00018464                __open_file
 .text.open     0x000184c0       0x70 C:/Appz/Freescale/CW MCU v10.6/MCU/ARM_GCC_Support/ewl/lib/armv6-m\libhosted.a(semihosted_file_io.o)
                0x000184c0                open
 .text.__init_semihost
                0x00018530       0x20 C:/Appz/Freescale/CW MCU v10.6/MCU/ARM_GCC_Support/ewl/lib/armv6-m\libhosted.a(semihosted_file_io.o)
                0x00018530                __init_semihost
 *(.rodata)
 .rodata        0x00018550       0x20 C:/Appz/Freescale/CW MCU v10.6/MCU/ARM_GCC_Support/ewl/lib/armv6-m\libc.a(__strtold.o)
 .rodata        0x00018570       0x40 c:/appz/freescale/cw mcu v10.6/cross_tools/arm-none-eabi-gcc-4_7_3/bin/../lib/gcc/arm-none-eabi/4.7.3/armv6-m\libgcc.a(divsf3.o)
 .rodata        0x000185b0       0x40 c:/appz/freescale/cw mcu v10.6/cross_tools/arm-none-eabi-gcc-4_7_3/bin/../lib/gcc/arm-none-eabi/4.7.3/armv6-m\libgcc.a(mulsf3.o)
 .rodata        0x000185f0       0x40 c:/appz/freescale/cw mcu v10.6/cross_tools/arm-none-eabi-gcc-4_7_3/bin/../lib/gcc/arm-none-eabi/4.7.3/armv6-m\libgcc.a(divdf3.o)
 .rodata        0x00018630       0x40 c:/appz/freescale/cw mcu v10.6/cross_tools/arm-none-eabi-gcc-4_7_3/bin/../lib/gcc/arm-none-eabi/4.7.3/armv6-m\libgcc.a(muldf3.o)
 *(.rodata*)
 .rodata.MQX_init_struct
                0x00018670       0x24 ./Generated_Code/MQX1.o
                0x00018670                MQX_init_struct
 .rodata.str1.4
                0x00018694       0x23 ./MQXLITE/config/task_template_list.o
                                 0x24 (size before relaxing)
 *fill*         0x000186b7        0x1 00
 .rodata.MQX_template_list
                0x000186b8       0x8c ./MQXLITE/config/task_template_list.o
                0x000186b8                MQX_template_list
 .rodata._mqx_path
                0x00018744        0x4 ./MQXLITE/kernel/mqxlite.o
                0x00018744                _mqx_path
 .rodata._mqx_vendor
                0x00018748        0x4 ./MQXLITE/kernel/mqxlite.o
                0x00018748                _mqx_vendor
 .rodata._mqxlite_version_number
                0x0001874c        0x4 ./MQXLITE/kernel/mqxlite.o
                0x0001874c                _mqxlite_version_number
 .rodata._mqx_version_number
                0x00018750        0x4 ./MQXLITE/kernel/mqxlite.o
                0x00018750                _mqx_version_number
 .rodata.str1.4
                0x00018754       0xde ./MQXLITE/kernel/mqxlite.o
                                 0xe0 (size before relaxing)
 *fill*         0x00018832        0x2 00
 .rodata.str1.4
                0x00018834        0xf ./MQXLITE/kernel/mqx_utils.o
                                 0x10 (size before relaxing)
 *fill*         0x00018843        0x1 00
 .rodata._mem_zero
                0x00018844       0x40 ./MQXLITE/psp/cortex_m/mem_zero.o
 .rodata.str1.4
                0x00018884       0x14 ./Sources/user_tasks.o
 .rodata.str1.1
                0x00018898       0x14 C:/Appz/Freescale/CW MCU v10.6/MCU/ARM_GCC_Support/ewl/lib/armv6-m\libc.a(printformat_fp.o)
                                 0x25 (size before relaxing)
 .rodata.CSWTCH.22
                0x000188ac       0x21 C:/Appz/Freescale/CW MCU v10.6/MCU/ARM_GCC_Support/ewl/lib/armv6-m\libc.a(printformat_fp.o)
 .rodata.CSWTCH.23
                0x000188cd       0x21 C:/Appz/Freescale/CW MCU v10.6/MCU/ARM_GCC_Support/ewl/lib/armv6-m\libc.a(printformat_fp.o)
 .rodata.__aeabi_ctype_table_C
                0x000188ee      0x101 C:/Appz/Freescale/CW MCU v10.6/MCU/ARM_GCC_Support/ewl/lib/armv6-m\libc.a(ctype_aeabi.o)
                0x000188ee                __aeabi_ctype_table_C
 *fill*         0x000189ef        0x1 00
 .rodata.digit_values
                0x000189f0       0x40 C:/Appz/Freescale/CW MCU v10.6/MCU/ARM_GCC_Support/ewl/lib/armv6-m\libm.a(ansi_fp.o)
 .rodata.bit_values
                0x00018a30       0x48 C:/Appz/Freescale/CW MCU v10.6/MCU/ARM_GCC_Support/ewl/lib/armv6-m\libm.a(ansi_fp.o)
 .rodata.dp_h   0x00018a78       0x10 C:/Appz/Freescale/CW MCU v10.6/MCU/ARM_GCC_Support/ewl/lib/armv6-m\libm.a(e_pow.o)
 .rodata.dp_l   0x00018a88       0x10 C:/Appz/Freescale/CW MCU v10.6/MCU/ARM_GCC_Support/ewl/lib/armv6-m\libm.a(e_pow.o)
 .rodata.bp     0x00018a98       0x10 C:/Appz/Freescale/CW MCU v10.6/MCU/ARM_GCC_Support/ewl/lib/armv6-m\libm.a(e_pow.o)
 .rodata.dp_h   0x00018aa8        0x8 C:/Appz/Freescale/CW MCU v10.6/MCU/ARM_GCC_Support/ewl/lib/armv6-m\libm.a(e_powf.o)
 .rodata.dp_l   0x00018ab0        0x8 C:/Appz/Freescale/CW MCU v10.6/MCU/ARM_GCC_Support/ewl/lib/armv6-m\libm.a(e_powf.o)
 .rodata.bp     0x00018ab8        0x8 C:/Appz/Freescale/CW MCU v10.6/MCU/ARM_GCC_Support/ewl/lib/armv6-m\libm.a(e_powf.o)
 .rodata.npio2_hw
                0x00018ac0       0x80 C:/Appz/Freescale/CW MCU v10.6/MCU/ARM_GCC_Support/ewl/lib/armv6-m\libm.a(e_rem_pio2f.o)
 .rodata.two_over_pi
                0x00018b40      0x318 C:/Appz/Freescale/CW MCU v10.6/MCU/ARM_GCC_Support/ewl/lib/armv6-m\libm.a(e_rem_pio2f.o)
 .rodata.init_jk
                0x00018e58        0xc C:/Appz/Freescale/CW MCU v10.6/MCU/ARM_GCC_Support/ewl/lib/armv6-m\libm.a(k_rem_pio2f.o)
 .rodata.PIo2   0x00018e64       0x2c C:/Appz/Freescale/CW MCU v10.6/MCU/ARM_GCC_Support/ewl/lib/armv6-m\libm.a(k_rem_pio2f.o)
 .rodata.str1.1
                0x00018e90        0x4 C:/Appz/Freescale/CW MCU v10.6/MCU/ARM_GCC_Support/ewl/lib/armv6-m\libhosted.a(semihosted_file_io.o)
 .rodata.CSWTCH.26
                0x00018e94        0x2 C:/Appz/Freescale/CW MCU v10.6/MCU/ARM_GCC_Support/ewl/lib/armv6-m\libhosted.a(semihosted_file_io.o)
 .rodata.CSWTCH.28
                0x00018e96        0x5 C:/Appz/Freescale/CW MCU v10.6/MCU/ARM_GCC_Support/ewl/lib/armv6-m\libhosted.a(semihosted_file_io.o)
 *(.glue_7)
 .glue_7        0x00000000        0x0 linker stubs
 *(.glue_7t)
 .glue_7t       0x00000000        0x0 linker stubs
 *(.eh_frame)
 *(.init)
 *(.fini)
                0x00018e9c                . = ALIGN (0x4)
 *fill*         0x00018e9b        0x1 00
 *(KERNEL)
 KERNEL         0x00018e9c      0x278 ./MQXLITE/psp/cortex_m/core/M0/dispatch.o
                0x00018e9c                _sched_start_internal
                0x00018ea2                _sched_run_internal
                0x00018ea8                _sched_check_scheduler_internal
                0x00018ec0                _sched_execute_scheduler_internal
                0x00018f88                _mqx_api_call
                0x00018f8a                _task_block
                0x00018fd2                _int_kernel_isr
                0x0001907c                _psp_exception_return
                0x000190b4                _mem_test_and_set
                0x000190ca                __get_PSP
                0x000190d0                __get_MSP
                0x000190d6                __set_MSP
                0x000190dc                __get_PSR
                0x000190e2                __enable_interrupt
                0x000190e6                __disable_interrupt
                0x000190ea                __get_LR
                0x000190ee                __get_PC
                0x000190f2                __get_CONTROL
                0x00000000                __VECTOR_TABLE_START = __vector_table
                0x00019114                . = ALIGN (0x4)
 *(.rdata)
                0x00019114                . = ALIGN (0x4)
 *(.exception)
                0x00019114                . = ALIGN (0x4)
                0x00019114                __exception_table_start__ = .
                0x00019114                __exception_table_end__ = .
                0x00019114                __sinit__ = .
                0x00019114                _etext = .

.vfp11_veneer   0x00019114        0x0
 .vfp11_veneer  0x00000000        0x0 linker stubs

.v4_bx          0x00019114        0x0
 .v4_bx         0x00000000        0x0 linker stubs

.iplt           0x00019114        0x0
 .iplt          0x00000000        0x0 ./Generated_Code/Vectors.o

.rel.dyn        0x00019114        0x0
 .rel.iplt      0x00000000        0x0 ./Generated_Code/Vectors.o

.ARM.extab
 *(.ARM.extab* .gnu.linkonce.armextab.*)

.ARM            0x00019114        0x0
                0x00019114                __exidx_start = .
 *(.ARM.exidx*)
                0x00019114                __exidx_end = .

.ctors          0x00019114        0x0
                0x00019114                __CTOR_LIST__ = .
 *crtbegin.o(.ctors)
 *(EXCLUDE_FILE(*crtend.o) .ctors)
 *(SORT(.ctors.*))
 *(.ctors)
                0x00019114                __CTOR_END__ = .

.dtors          0x00019114        0x0
                0x00019114                __DTOR_LIST__ = .
 *crtbegin.o(.dtors)
 *(EXCLUDE_FILE(*crtend.o) .dtors)
 *(SORT(.dtors.*))
 *(.dtors)
                0x00019114                __DTOR_END__ = .

.preinit_array  0x00019114        0x0
                0x00019114                PROVIDE (__preinit_array_start, .)
 *(.preinit_array*)
                0x00019114                PROVIDE (__preinit_array_end, .)

.init_array     0x00019114        0x0
                0x00019114                PROVIDE (__init_array_start, .)
 *(SORT(.init_array.*))
 *(.init_array*)
                0x00019114                PROVIDE (__init_array_end, .)

.fini_array     0x00019114        0x0
                0x00019114                PROVIDE (__fini_array_start, .)
 *(SORT(.fini_array.*))
 *(.fini_array*)
                0x00019114                PROVIDE (__fini_array_end, .)
                0x00019114                ___ROM_AT = .

.mtb            0x1ffff000        0x0
                0x1ffff000                . = ALIGN (0x8)
                0x1ffff000                _mtb_start = .
 *(.mtb_buf)
                0x1ffff000                . = ALIGN (0x8)
                0x1ffff000                _mtb_end = .

.data           0x1ffff000       0x3c load address 0x00019114
                0x1ffff000                . = ALIGN (0x4)
                0x1ffff000                _sdata = .
 *(.data)
 *(.data*)
 .data.mqx_task_stack_pointers
                0x1ffff000       0x14 ./Generated_Code/MQX1.o
                0x1ffff000                mqx_task_stack_pointers
 .data._mqx_kernel_data
                0x1ffff014        0x4 ./MQXLITE/kernel/mqxlite.o
                0x1ffff014                _mqx_kernel_data
 .data.Ik       0x1ffff018        0x4 ./Sources/user_tasks.o
                0x1ffff018                Ik
 .data.Pk       0x1ffff01c        0x4 ./Sources/user_tasks.o
                0x1ffff01c                Pk
 .data.__double_nan
                0x1ffff020        0x8 C:/Appz/Freescale/CW MCU v10.6/MCU/ARM_GCC_Support/ewl/lib/armv6-m\libm.a(float.o)
                0x1ffff020                __double_nan
 .data.__double_huge
                0x1ffff028        0x8 C:/Appz/Freescale/CW MCU v10.6/MCU/ARM_GCC_Support/ewl/lib/armv6-m\libm.a(float.o)
                0x1ffff028                __double_huge
 .data.__float_nan
                0x1ffff030        0x4 C:/Appz/Freescale/CW MCU v10.6/MCU/ARM_GCC_Support/ewl/lib/armv6-m\libm.a(float.o)
                0x1ffff030                __float_nan
 .data.__extended_max
                0x1ffff034        0x8 C:/Appz/Freescale/CW MCU v10.6/MCU/ARM_GCC_Support/ewl/lib/armv6-m\libm.a(float.o)
                0x1ffff034                __extended_max
                0x1ffff03c                . = ALIGN (0x4)
                0x1ffff03c                _edata = .
                0x0000003c                ___data_size = (_edata - _sdata)

.igot.plt       0x1ffff03c        0x0 load address 0x00019150
 .igot.plt      0x00000000        0x0 ./Generated_Code/Vectors.o
                0x1ffff03c                . = ALIGN (0x4)

.bss            0x1ffff03c     0x379c load address 0x00019150
                0x1ffff03c                __START_BSS = .
                0x1ffff03c                PROVIDE (__bss_start__, __START_BSS)
 *(.bss)
 *(.bss*)
 .bss.DeviceDataPrv__DEFAULT_RTOS_ALLOC
                0x1ffff03c       0x20 ./Generated_Code/UART.o
 .bss.DeviceDataPrv__DEFAULT_RTOS_ALLOC
                0x1ffff05c        0x4 ./Generated_Code/TestPin_MagCal_Time.o
 .bss.DeviceDataPrv__DEFAULT_RTOS_ALLOC
                0x1ffff060        0x4 ./Generated_Code/TestPin_KF_Time.o
 .bss.DeviceDataPrv__DEFAULT_RTOS_ALLOC
                0x1ffff064        0x8 ./Generated_Code/TU1.o
 .bss.DeviceDataPrv__DEFAULT_RTOS_ALLOC
                0x1ffff06c        0xc ./Generated_Code/SystemTimer1.o
 .bss.DeviceDataPrv__DEFAULT_RTOS_ALLOC
                0x1ffff078        0xc ./Generated_Code/PWM1.o
 .bss.PE_LDD_DeviceDataList
                0x1ffff084       0x40 ./Generated_Code/PE_LDD.o
                0x1ffff084                PE_LDD_DeviceDataList
 .bss.DeviceDataPrv__DEFAULT_RTOS_ALLOC
                0x1ffff0c4        0x4 ./Generated_Code/LED_RED.o
 .bss.DeviceDataPrv__DEFAULT_RTOS_ALLOC
                0x1ffff0c8        0x4 ./Generated_Code/LED_GREEN.o
 .bss.DeviceDataPrv__DEFAULT_RTOS_ALLOC
                0x1ffff0cc       0x24 ./Generated_Code/I2C.o
 .bss.DeviceDataPrv__DEFAULT_RTOS_ALLOC
                0x1ffff0f0        0xc ./Generated_Code/FTM.o
 .bss.DeviceDataPrv__DEFAULT_RTOS_ALLOC
                0x1ffff0fc        0x4 ./Generated_Code/BitIoLdd6.o
 .bss.DeviceDataPrv__DEFAULT_RTOS_ALLOC
                0x1ffff100        0x4 ./Generated_Code/BitIoLdd5.o
 .bss.DeviceDataPrv__DEFAULT_RTOS_ALLOC
                0x1ffff104        0x4 ./Generated_Code/BitIoLdd4.o
 .bss.DeviceDataPrv__DEFAULT_RTOS_ALLOC
                0x1ffff108        0x4 ./Generated_Code/BitIoLdd3.o
 .bss.DeviceDataPrv__DEFAULT_RTOS_ALLOC
                0x1ffff10c        0x4 ./Generated_Code/BitIoLdd2.o
 .bss.DeviceDataPrv__DEFAULT_RTOS_ALLOC
                0x1ffff110        0x4 ./Generated_Code/BitIoLdd1.o
 .bss.argv      0x1ffff114        0x4 ./Project_Settings/Startup_Code/__arm_start.o
 .bss.P         0x1ffff118        0x4 ./Sources/user_tasks.o
                0x1ffff118                P
 .bss.lay       0x1ffff11c        0x4 ./Sources/user_tasks.o
                0x1ffff11c                lay
 .bss.temp      0x1ffff120        0x4 ./Sources/user_tasks.o
                0x1ffff120                temp
 .bss.D         0x1ffff124        0x4 ./Sources/user_tasks.o
                0x1ffff124                D
 .bss.I         0x1ffff128        0x4 ./Sources/user_tasks.o
                0x1ffff128                I
 .bss.iCounter.8773
                0x1ffff12c        0x1 ./Sources/tasks_func.o
 .bss.ivalid_license.6463
                0x1ffff12d        0x1 D:/xuser00/Ansoft/XSFK_KL25Z/XSFK_KL25Z/Library\libFusion.a(baranski_kalman.o)
 *fill*         0x1ffff12e        0x2 00
 .bss.__stdio_exit
                0x1ffff130        0x4 C:/Appz/Freescale/CW MCU v10.6/MCU/ARM_GCC_Support/ewl/lib/armv6-m\libc.a(exit.o)
                0x1ffff130                __stdio_exit
 .bss.__console_exit
                0x1ffff134        0x4 C:/Appz/Freescale/CW MCU v10.6/MCU/ARM_GCC_Support/ewl/lib/armv6-m\libc.a(exit.o)
                0x1ffff134                __console_exit
 .bss.__S_romp  0x1ffff138        0xc C:/Appz/Freescale/CW MCU v10.6/MCU/ARM_GCC_Support/ewl/lib/armv6-m\librt.a(ROMCopy.o)
 .bss.__global_destructor_chain
                0x1ffff144        0x4 C:/Appz/Freescale/CW MCU v10.6/MCU/ARM_GCC_Support/ewl/lib/armv6-m\librt.a(__arm_eabi_init.o)
                0x1ffff144                __global_destructor_chain
 *(COMMON)
 COMMON         0x1ffff148     0x158c ./Generated_Code/MQX1.o
                0x1ffff148                Main_task_stack
                0x1ffff3cc                RdSensData_task_stack
                0x1ffff750                _mqx_kernel_data_struct
                0x1ffff9b0                mqx_interrupt_stack
                0x1ffffac0                mqx_static_ready_queue
                0x1ffffb90                mqx_static_isr_table
                0x1ffffcf8                mqx_idle_task_stack
                0x1ffffe20                Fusion_task_stack
                0x200002a4                mqx_system_stack
                0x20000350                MagCal_task_stack
 COMMON         0x200006d4        0x4 ./MQXLITE/kernel/task.o
                0x200006d4                _tad_task_at_flag
 COMMON         0x200006d8       0x50 ./MQXLITE/kernel/mqxlite.o
                0x200006d8                _mqx_zero_tick_struct
                0x200006e4                _mqx_system_stack
                0x200006e8                _mqx_exit_jump_buffer_internal
 COMMON         0x20000728       0x10 ./Sources/user_tasks.o
                0x20000728                Memory
                0x2000072c                vajda
                0x20000730                jozo
                0x20000734                Sum
 COMMON         0x20000738     0x1ef0 ./Sources/tasks_func.o
                0x20000738                thisSV_1DOF_P_BASIC
                0x2000074c                thisAccel
                0x20000780                thisSV_3DOF_B_BASIC
                0x20000820                thisMagBuffer
                0x20001378                thisSV_3DOF_G_BASIC
                0x20001418                thisPressure
                0x20001434                thisSV_6DOF_GB_BASIC
                0x200014dc                thisMagCal
                0x200018f4                thisGyro
                0x20001948                thisSV_9DOF_GBY_KALMAN
                0x200020e8                thisSV_6DOF_GY_KALMAN
                0x20002554                thisMag
                0x200025ac                thisSV_3DOF_Y_BASIC
 COMMON         0x20002628       0x98 ./Sources/mqx_tasks.o
                0x20002628                mqxglobals
                0x200026a4                globals
 COMMON         0x200026c0      0x114 ./Sources/FSL_utils.o
                0x200026c0                sUARTOutputBuf
                0x200027c0                I2C2_Buf
                0x200027d0                sUARTInputBuf
 COMMON         0x200027d4        0x4 C:/Appz/Freescale/CW MCU v10.6/MCU/ARM_GCC_Support/ewl/lib/armv6-m\libc.a(errno.o)
                0x200027d4                errno
                0x200027d8                . = ALIGN (0x4)
                0x200027d8                __END_BSS = .
                0x200027d8                PROVIDE (__bss_end__, __END_BSS)
                0x00019150                _romp_at = (___ROM_AT + SIZEOF (.data))

.romp           0x200027d8       0x18 load address 0x00019150
                0x00019150                __S_romp = _romp_at
                0x200027d8        0x4 LONG 0x19114 ___ROM_AT
                0x200027dc        0x4 LONG 0x1ffff000 _sdata
                0x200027e0        0x4 LONG 0x3c ___data_size
                0x200027e4        0x4 LONG 0x0
                0x200027e8        0x4 LONG 0x0
                0x200027ec        0x4 LONG 0x0

._user_heap_stack
                0x200027f0      0x400 load address 0x00019168
                0x200027f0                . = ALIGN (0x4)
                0x200027f0                PROVIDE (end, .)
                0x200027f0                PROVIDE (_end, .)
                0x200027f0                __heap_addr = .
                0x200027f0                . = (. + __heap_size)
                0x20002bf0                . = (. + __stack_size)
 *fill*         0x200027f0      0x400 00
                0x20002bf0                . = ALIGN (0x4)

.ARM.attributes
                0x00000000       0x2f
 *(.ARM.attributes)
 .ARM.attributes
                0x00000000       0x31 ./Generated_Code/Vectors.o
 .ARM.attributes
                0x00000031       0x31 ./Generated_Code/UART.o
 .ARM.attributes
                0x00000062       0x31 ./Generated_Code/TestPin_MagCal_Time.o
 .ARM.attributes
                0x00000093       0x31 ./Generated_Code/TestPin_KF_Time.o
 .ARM.attributes
                0x000000c4       0x31 ./Generated_Code/TU1.o
 .ARM.attributes
                0x000000f5       0x31 ./Generated_Code/SystemTimer1.o
 .ARM.attributes
                0x00000126       0x31 ./Generated_Code/PWM1.o
 .ARM.attributes
                0x00000157       0x31 ./Generated_Code/PE_LDD.o
 .ARM.attributes
                0x00000188       0x31 ./Generated_Code/MQX1.o
 .ARM.attributes
                0x000001b9       0x31 ./Generated_Code/LED_RED.o
 .ARM.attributes
                0x000001ea       0x31 ./Generated_Code/LED_GREEN.o
 .ARM.attributes
                0x0000021b       0x31 ./Generated_Code/I2C.o
 .ARM.attributes
                0x0000024c       0x31 ./Generated_Code/FTM.o
 .ARM.attributes
                0x0000027d       0x31 ./Generated_Code/Cpu.o
 .ARM.attributes
                0x000002ae       0x31 ./Generated_Code/BitIoLdd6.o
 .ARM.attributes
                0x000002df       0x31 ./Generated_Code/BitIoLdd5.o
 .ARM.attributes
                0x00000310       0x31 ./Generated_Code/BitIoLdd4.o
 .ARM.attributes
                0x00000341       0x31 ./Generated_Code/BitIoLdd3.o
 .ARM.attributes
                0x00000372       0x31 ./Generated_Code/BitIoLdd2.o
 .ARM.attributes
                0x000003a3       0x31 ./Generated_Code/BitIoLdd1.o
 .ARM.attributes
                0x000003d4       0x31 ./MQXLITE/config/task_template_list.o
 .ARM.attributes
                0x00000405       0x31 ./MQXLITE/kernel/time_ticks.o
 .ARM.attributes
                0x00000436       0x31 ./MQXLITE/kernel/task.o
 .ARM.attributes
                0x00000467       0x31 ./MQXLITE/kernel/mqxlite.o
 .ARM.attributes
                0x00000498       0x31 ./MQXLITE/kernel/mqx_utils.o
 .ARM.attributes
                0x000004c9       0x31 ./MQXLITE/kernel/lwsem.o
 .ARM.attributes
                0x000004fa       0x31 ./MQXLITE/kernel/lwevent.o
 .ARM.attributes
                0x0000052b       0x31 ./MQXLITE/kernel/int.o
 .ARM.attributes
                0x0000055c       0x31 ./MQXLITE/kernel/idletask.o
 .ARM.attributes
                0x0000058d       0x21 ./MQXLITE/psp/cortex_m/core/M0/dispatch.o
 .ARM.attributes
                0x000005ae       0x21 ./MQXLITE/psp/cortex_m/core/M0/boot.o
 .ARM.attributes
                0x000005cf       0x31 ./MQXLITE/psp/cortex_m/stack_de.o
 .ARM.attributes
                0x00000600       0x31 ./MQXLITE/psp/cortex_m/stack_bu.o
 .ARM.attributes
                0x00000631       0x31 ./MQXLITE/psp/cortex_m/sc_irdyq.o
 .ARM.attributes
                0x00000662       0x31 ./MQXLITE/psp/cortex_m/psp_tinm.o
 .ARM.attributes
                0x00000693       0x31 ./MQXLITE/psp/cortex_m/psp_tiad.o
 .ARM.attributes
                0x000006c4       0x31 ./MQXLITE/psp/cortex_m/psp_iinit.o
 .ARM.attributes
                0x000006f5       0x31 ./MQXLITE/psp/cortex_m/mem_zero.o
 .ARM.attributes
                0x00000726       0x31 ./MQXLITE/psp/cortex_m/int_vtab.o
 .ARM.attributes
                0x00000757       0x31 ./MQXLITE/psp/cortex_m/int_inst.o
 .ARM.attributes
                0x00000788       0x31 ./Project_Settings/Startup_Code/__arm_start.o
 .ARM.attributes
                0x000007b9       0x31 ./Project_Settings/Startup_Code/__arm_end.o
 .ARM.attributes
                0x000007ea       0x31 ./Sources/user_tasks.o
 .ARM.attributes
                0x0000081b       0x31 ./Sources/tasks_func.o
 .ARM.attributes
                0x0000084c       0x31 ./Sources/mqx_tasks.o
 .ARM.attributes
                0x0000087d       0x31 ./Sources/main.o
 .ARM.attributes
                0x000008ae       0x31 ./Sources/FSL_utils.o
 .ARM.attributes
                0x000008df       0x31 ./Sources/Events.o
 .ARM.attributes
                0x00000910       0x31 D:/xuser00/Ansoft/XSFK_KL25Z/XSFK_KL25Z/Library\libFusion.a(baranski_kalman.o)
 .ARM.attributes
                0x00000941       0x31 D:/xuser00/Ansoft/XSFK_KL25Z/XSFK_KL25Z/Library\libFusion.a(matrix.o)
 .ARM.attributes
                0x00000972       0x31 D:/xuser00/Ansoft/XSFK_KL25Z/XSFK_KL25Z/Library\libFusion.a(magnetic.o)
 .ARM.attributes
                0x000009a3       0x31 D:/xuser00/Ansoft/XSFK_KL25Z/XSFK_KL25Z/Library\libFusion.a(approximations.o)
 .ARM.attributes
                0x000009d4       0x31 D:/xuser00/Ansoft/XSFK_KL25Z/XSFK_KL25Z/Library\libFusion.a(orientation.o)
 .ARM.attributes
                0x00000a05       0x31 C:/Appz/Freescale/CW MCU v10.6/MCU/ARM_GCC_Support/ewl/lib/armv6-m\libc.a(sprintf.o)
 .ARM.attributes
                0x00000a36       0x31 C:/Appz/Freescale/CW MCU v10.6/MCU/ARM_GCC_Support/ewl/lib/armv6-m\libc.a(vsnprintf.o)
 .ARM.attributes
                0x00000a67       0x31 C:/Appz/Freescale/CW MCU v10.6/MCU/ARM_GCC_Support/ewl/lib/armv6-m\libc.a(exit.o)
 .ARM.attributes
                0x00000a98       0x31 C:/Appz/Freescale/CW MCU v10.6/MCU/ARM_GCC_Support/ewl/lib/armv6-m\libc.a(memcpy.o)
 .ARM.attributes
                0x00000ac9       0x31 C:/Appz/Freescale/CW MCU v10.6/MCU/ARM_GCC_Support/ewl/lib/armv6-m\libc.a(memset.o)
 .ARM.attributes
                0x00000afa       0x31 C:/Appz/Freescale/CW MCU v10.6/MCU/ARM_GCC_Support/ewl/lib/armv6-m\libc.a(printformat_fp.o)
 .ARM.attributes
                0x00000b2b       0x31 C:/Appz/Freescale/CW MCU v10.6/MCU/ARM_GCC_Support/ewl/lib/armv6-m\libc.a(scanformat_fp.o)
 .ARM.attributes
                0x00000b5c       0x31 C:/Appz/Freescale/CW MCU v10.6/MCU/ARM_GCC_Support/ewl/lib/armv6-m\libc.a(ctype_aeabi.o)
 .ARM.attributes
                0x00000b8d       0x31 C:/Appz/Freescale/CW MCU v10.6/MCU/ARM_GCC_Support/ewl/lib/armv6-m\libc.a(__strtold.o)
 .ARM.attributes
                0x00000bbe       0x31 C:/Appz/Freescale/CW MCU v10.6/MCU/ARM_GCC_Support/ewl/lib/armv6-m\libc.a(__strtoul.o)
 .ARM.attributes
                0x00000bef       0x31 C:/Appz/Freescale/CW MCU v10.6/MCU/ARM_GCC_Support/ewl/lib/armv6-m\libc.a(__filll_mem.o)
 .ARM.attributes
                0x00000c20       0x31 C:/Appz/Freescale/CW MCU v10.6/MCU/ARM_GCC_Support/ewl/lib/armv6-m\libc.a(memchr.o)
 .ARM.attributes
                0x00000c51       0x31 C:/Appz/Freescale/CW MCU v10.6/MCU/ARM_GCC_Support/ewl/lib/armv6-m\libc.a(strchr.o)
 .ARM.attributes
                0x00000c82       0x31 C:/Appz/Freescale/CW MCU v10.6/MCU/ARM_GCC_Support/ewl/lib/armv6-m\libc.a(strcpy.o)
 .ARM.attributes
                0x00000cb3       0x31 C:/Appz/Freescale/CW MCU v10.6/MCU/ARM_GCC_Support/ewl/lib/armv6-m\libc.a(strlen.o)
 .ARM.attributes
                0x00000ce4       0x31 C:/Appz/Freescale/CW MCU v10.6/MCU/ARM_GCC_Support/ewl/lib/armv6-m\libc.a(errno.o)
 .ARM.attributes
                0x00000d15       0x31 C:/Appz/Freescale/CW MCU v10.6/MCU/ARM_GCC_Support/ewl/lib/armv6-m\libm.a(ansi_fp.o)
 .ARM.attributes
                0x00000d46       0x31 C:/Appz/Freescale/CW MCU v10.6/MCU/ARM_GCC_Support/ewl/lib/armv6-m\libm.a(float.o)
 .ARM.attributes
                0x00000d77       0x31 C:/Appz/Freescale/CW MCU v10.6/MCU/ARM_GCC_Support/ewl/lib/armv6-m\libm.a(math_api.o)
 .ARM.attributes
                0x00000da8       0x31 C:/Appz/Freescale/CW MCU v10.6/MCU/ARM_GCC_Support/ewl/lib/armv6-m\libm.a(s_frexp.o)
 .ARM.attributes
                0x00000dd9       0x31 C:/Appz/Freescale/CW MCU v10.6/MCU/ARM_GCC_Support/ewl/lib/armv6-m\libm.a(s_sinf.o)
 .ARM.attributes
                0x00000e0a       0x31 C:/Appz/Freescale/CW MCU v10.6/MCU/ARM_GCC_Support/ewl/lib/armv6-m\libm.a(w_acosf.o)
 .ARM.attributes
                0x00000e3b       0x31 C:/Appz/Freescale/CW MCU v10.6/MCU/ARM_GCC_Support/ewl/lib/armv6-m\libm.a(w_pow.o)
 .ARM.attributes
                0x00000e6c       0x31 C:/Appz/Freescale/CW MCU v10.6/MCU/ARM_GCC_Support/ewl/lib/armv6-m\libm.a(w_powf.o)
 .ARM.attributes
                0x00000e9d       0x31 C:/Appz/Freescale/CW MCU v10.6/MCU/ARM_GCC_Support/ewl/lib/armv6-m\libm.a(w_sqrtf.o)
 .ARM.attributes
                0x00000ece       0x31 C:/Appz/Freescale/CW MCU v10.6/MCU/ARM_GCC_Support/ewl/lib/armv6-m\libm.a(e_acosf.o)
 .ARM.attributes
                0x00000eff       0x31 C:/Appz/Freescale/CW MCU v10.6/MCU/ARM_GCC_Support/ewl/lib/armv6-m\libm.a(e_pow.o)
 .ARM.attributes
                0x00000f30       0x31 C:/Appz/Freescale/CW MCU v10.6/MCU/ARM_GCC_Support/ewl/lib/armv6-m\libm.a(e_powf.o)
 .ARM.attributes
                0x00000f61       0x31 C:/Appz/Freescale/CW MCU v10.6/MCU/ARM_GCC_Support/ewl/lib/armv6-m\libm.a(e_rem_pio2f.o)
 .ARM.attributes
                0x00000f92       0x31 C:/Appz/Freescale/CW MCU v10.6/MCU/ARM_GCC_Support/ewl/lib/armv6-m\libm.a(e_sqrtf.o)
 .ARM.attributes
                0x00000fc3       0x31 C:/Appz/Freescale/CW MCU v10.6/MCU/ARM_GCC_Support/ewl/lib/armv6-m\libm.a(k_cosf.o)
 .ARM.attributes
                0x00000ff4       0x31 C:/Appz/Freescale/CW MCU v10.6/MCU/ARM_GCC_Support/ewl/lib/armv6-m\libm.a(k_rem_pio2f.o)
 .ARM.attributes
                0x00001025       0x31 C:/Appz/Freescale/CW MCU v10.6/MCU/ARM_GCC_Support/ewl/lib/armv6-m\libm.a(k_sinf.o)
 .ARM.attributes
                0x00001056       0x31 C:/Appz/Freescale/CW MCU v10.6/MCU/ARM_GCC_Support/ewl/lib/armv6-m\libm.a(s_floorf.o)
 .ARM.attributes
                0x00001087       0x31 C:/Appz/Freescale/CW MCU v10.6/MCU/ARM_GCC_Support/ewl/lib/armv6-m\libm.a(s_scalbnf.o)
 .ARM.attributes
                0x000010b8       0x31 C:/Appz/Freescale/CW MCU v10.6/MCU/ARM_GCC_Support/ewl/lib/armv6-m\libm.a(scalbn.o)
 .ARM.attributes
                0x000010e9       0x31 C:/Appz/Freescale/CW MCU v10.6/MCU/ARM_GCC_Support/ewl/lib/armv6-m\libm.a(w_sqrt.o)
 .ARM.attributes
                0x0000111a       0x31 C:/Appz/Freescale/CW MCU v10.6/MCU/ARM_GCC_Support/ewl/lib/armv6-m\libm.a(e_sqrt.o)
 .ARM.attributes
                0x0000114b       0x31 C:/Appz/Freescale/CW MCU v10.6/MCU/ARM_GCC_Support/ewl/lib/armv6-m\libm.a(s_ldexp.o)
 .ARM.attributes
                0x0000117c       0x1e c:/appz/freescale/cw mcu v10.6/cross_tools/arm-none-eabi-gcc-4_7_3/bin/../lib/gcc/arm-none-eabi/4.7.3/armv6-m\libgcc.a(_thumb1_case_sqi.o)
 .ARM.attributes
                0x0000119a       0x1e c:/appz/freescale/cw mcu v10.6/cross_tools/arm-none-eabi-gcc-4_7_3/bin/../lib/gcc/arm-none-eabi/4.7.3/armv6-m\libgcc.a(_thumb1_case_uqi.o)
 .ARM.attributes
                0x000011b8       0x1e c:/appz/freescale/cw mcu v10.6/cross_tools/arm-none-eabi-gcc-4_7_3/bin/../lib/gcc/arm-none-eabi/4.7.3/armv6-m\libgcc.a(_udivsi3.o)
 .ARM.attributes
                0x000011d6       0x1e c:/appz/freescale/cw mcu v10.6/cross_tools/arm-none-eabi-gcc-4_7_3/bin/../lib/gcc/arm-none-eabi/4.7.3/armv6-m\libgcc.a(_divsi3.o)
 .ARM.attributes
                0x000011f4       0x1e c:/appz/freescale/cw mcu v10.6/cross_tools/arm-none-eabi-gcc-4_7_3/bin/../lib/gcc/arm-none-eabi/4.7.3/armv6-m\libgcc.a(_dvmd_tls.o)
 .ARM.attributes
                0x00001212       0x1e c:/appz/freescale/cw mcu v10.6/cross_tools/arm-none-eabi-gcc-4_7_3/bin/../lib/gcc/arm-none-eabi/4.7.3/armv6-m\libgcc.a(_arm_cmpdf2.o)
 .ARM.attributes
                0x00001230       0x1e c:/appz/freescale/cw mcu v10.6/cross_tools/arm-none-eabi-gcc-4_7_3/bin/../lib/gcc/arm-none-eabi/4.7.3/armv6-m\libgcc.a(_arm_cmpsf2.o)
 .ARM.attributes
                0x0000124e       0x2c c:/appz/freescale/cw mcu v10.6/cross_tools/arm-none-eabi-gcc-4_7_3/bin/../lib/gcc/arm-none-eabi/4.7.3/armv6-m\libgcc.a(addsf3.o)
 .ARM.attributes
                0x0000127a       0x2c c:/appz/freescale/cw mcu v10.6/cross_tools/arm-none-eabi-gcc-4_7_3/bin/../lib/gcc/arm-none-eabi/4.7.3/armv6-m\libgcc.a(divsf3.o)
 .ARM.attributes
                0x000012a6       0x2c c:/appz/freescale/cw mcu v10.6/cross_tools/arm-none-eabi-gcc-4_7_3/bin/../lib/gcc/arm-none-eabi/4.7.3/armv6-m\libgcc.a(eqsf2.o)
 .ARM.attributes
                0x000012d2       0x2c c:/appz/freescale/cw mcu v10.6/cross_tools/arm-none-eabi-gcc-4_7_3/bin/../lib/gcc/arm-none-eabi/4.7.3/armv6-m\libgcc.a(gesf2.o)
 .ARM.attributes
                0x000012fe       0x2c c:/appz/freescale/cw mcu v10.6/cross_tools/arm-none-eabi-gcc-4_7_3/bin/../lib/gcc/arm-none-eabi/4.7.3/armv6-m\libgcc.a(lesf2.o)
 .ARM.attributes
                0x0000132a       0x2c c:/appz/freescale/cw mcu v10.6/cross_tools/arm-none-eabi-gcc-4_7_3/bin/../lib/gcc/arm-none-eabi/4.7.3/armv6-m\libgcc.a(mulsf3.o)
 .ARM.attributes
                0x00001356       0x2c c:/appz/freescale/cw mcu v10.6/cross_tools/arm-none-eabi-gcc-4_7_3/bin/../lib/gcc/arm-none-eabi/4.7.3/armv6-m\libgcc.a(subsf3.o)
 .ARM.attributes
                0x00001382       0x2c c:/appz/freescale/cw mcu v10.6/cross_tools/arm-none-eabi-gcc-4_7_3/bin/../lib/gcc/arm-none-eabi/4.7.3/armv6-m\libgcc.a(fixsfsi.o)
 .ARM.attributes
                0x000013ae       0x2c c:/appz/freescale/cw mcu v10.6/cross_tools/arm-none-eabi-gcc-4_7_3/bin/../lib/gcc/arm-none-eabi/4.7.3/armv6-m\libgcc.a(floatsisf.o)
 .ARM.attributes
                0x000013da       0x2c c:/appz/freescale/cw mcu v10.6/cross_tools/arm-none-eabi-gcc-4_7_3/bin/../lib/gcc/arm-none-eabi/4.7.3/armv6-m\libgcc.a(adddf3.o)
 .ARM.attributes
                0x00001406       0x2c c:/appz/freescale/cw mcu v10.6/cross_tools/arm-none-eabi-gcc-4_7_3/bin/../lib/gcc/arm-none-eabi/4.7.3/armv6-m\libgcc.a(divdf3.o)
 .ARM.attributes
                0x00001432       0x2c c:/appz/freescale/cw mcu v10.6/cross_tools/arm-none-eabi-gcc-4_7_3/bin/../lib/gcc/arm-none-eabi/4.7.3/armv6-m\libgcc.a(eqdf2.o)
 .ARM.attributes
                0x0000145e       0x2c c:/appz/freescale/cw mcu v10.6/cross_tools/arm-none-eabi-gcc-4_7_3/bin/../lib/gcc/arm-none-eabi/4.7.3/armv6-m\libgcc.a(gedf2.o)
 .ARM.attributes
                0x0000148a       0x2c c:/appz/freescale/cw mcu v10.6/cross_tools/arm-none-eabi-gcc-4_7_3/bin/../lib/gcc/arm-none-eabi/4.7.3/armv6-m\libgcc.a(ledf2.o)
 .ARM.attributes
                0x000014b6       0x2c c:/appz/freescale/cw mcu v10.6/cross_tools/arm-none-eabi-gcc-4_7_3/bin/../lib/gcc/arm-none-eabi/4.7.3/armv6-m\libgcc.a(muldf3.o)
 .ARM.attributes
                0x000014e2       0x2c c:/appz/freescale/cw mcu v10.6/cross_tools/arm-none-eabi-gcc-4_7_3/bin/../lib/gcc/arm-none-eabi/4.7.3/armv6-m\libgcc.a(subdf3.o)
 .ARM.attributes
                0x0000150e       0x2c c:/appz/freescale/cw mcu v10.6/cross_tools/arm-none-eabi-gcc-4_7_3/bin/../lib/gcc/arm-none-eabi/4.7.3/armv6-m\libgcc.a(fixdfsi.o)
 .ARM.attributes
                0x0000153a       0x2c c:/appz/freescale/cw mcu v10.6/cross_tools/arm-none-eabi-gcc-4_7_3/bin/../lib/gcc/arm-none-eabi/4.7.3/armv6-m\libgcc.a(floatsidf.o)
 .ARM.attributes
                0x00001566       0x2c c:/appz/freescale/cw mcu v10.6/cross_tools/arm-none-eabi-gcc-4_7_3/bin/../lib/gcc/arm-none-eabi/4.7.3/armv6-m\libgcc.a(extendsfdf2.o)
 .ARM.attributes
                0x00001592       0x2c c:/appz/freescale/cw mcu v10.6/cross_tools/arm-none-eabi-gcc-4_7_3/bin/../lib/gcc/arm-none-eabi/4.7.3/armv6-m\libgcc.a(truncdfsf2.o)
 .ARM.attributes
                0x000015be       0x1e c:/appz/freescale/cw mcu v10.6/cross_tools/arm-none-eabi-gcc-4_7_3/bin/../lib/gcc/arm-none-eabi/4.7.3/armv6-m\libgcc.a(_clzsi2.o)
 .ARM.attributes
                0x000015dc       0x31 C:/Appz/Freescale/CW MCU v10.6/MCU/ARM_GCC_Support/ewl/lib/armv6-m\librt.a(gcc_ctor_dtor.o)
 .ARM.attributes
                0x0000160d       0x31 C:/Appz/Freescale/CW MCU v10.6/MCU/ARM_GCC_Support/ewl/lib/armv6-m\librt.a(ROMCopy.o)
 .ARM.attributes
                0x0000163e       0x31 C:/Appz/Freescale/CW MCU v10.6/MCU/ARM_GCC_Support/ewl/lib/armv6-m\librt.a(__arm_eabi_init.o)
 .ARM.attributes
                0x0000166f       0x31 C:/Appz/Freescale/CW MCU v10.6/MCU/ARM_GCC_Support/ewl/lib/armv6-m\librt.a(setjmp.o)
 .ARM.attributes
                0x000016a0       0x31 C:/Appz/Freescale/CW MCU v10.6/MCU/ARM_GCC_Support/ewl/lib/armv6-m\libhosted.a(semihosted_console_io.o)
 .ARM.attributes
                0x000016d1       0x31 C:/Appz/Freescale/CW MCU v10.6/MCU/ARM_GCC_Support/ewl/lib/armv6-m\libhosted.a(semihosted_file_io.o)
OUTPUT(XSFK_KL25Z.elf elf32-littlearm)

.debug_info     0x00000000    0x21ee1
 .debug_info    0x00000000      0x234 ./Generated_Code/Vectors.o
 .debug_info    0x00000234      0x9df ./Generated_Code/UART.o
 .debug_info    0x00000c13      0x3a5 ./Generated_Code/TestPin_MagCal_Time.o
 .debug_info    0x00000fb8      0x3a5 ./Generated_Code/TestPin_KF_Time.o
 .debug_info    0x0000135d      0x6f9 ./Generated_Code/TU1.o
 .debug_info    0x00001a56      0x658 ./Generated_Code/SystemTimer1.o
 .debug_info    0x000020ae      0x2f5 ./Generated_Code/PWM1.o
 .debug_info    0x000023a3      0x39a ./Generated_Code/PE_LDD.o
 .debug_info    0x0000273d      0xebc ./Generated_Code/MQX1.o
 .debug_info    0x000035f9      0x3cf ./Generated_Code/LED_RED.o
 .debug_info    0x000039c8      0x3cf ./Generated_Code/LED_GREEN.o
 .debug_info    0x00003d97      0xb82 ./Generated_Code/I2C.o
 .debug_info    0x00004919      0x6ca ./Generated_Code/FTM.o
 .debug_info    0x00004fe3      0xc52 ./Generated_Code/Cpu.o
 .debug_info    0x00005c35      0x3e0 ./Generated_Code/BitIoLdd6.o
 .debug_info    0x00006015      0x3e0 ./Generated_Code/BitIoLdd5.o
 .debug_info    0x000063f5      0x3e0 ./Generated_Code/BitIoLdd4.o
 .debug_info    0x000067d5      0x3e0 ./Generated_Code/BitIoLdd3.o
 .debug_info    0x00006bb5      0x3e0 ./Generated_Code/BitIoLdd2.o
 .debug_info    0x00006f95      0x415 ./Generated_Code/BitIoLdd1.o
 .debug_info    0x000073aa      0x29f ./MQXLITE/config/task_template_list.o
 .debug_info    0x00007649     0x1388 ./MQXLITE/kernel/time_ticks.o
 .debug_info    0x000089d1     0x2bf8 ./MQXLITE/kernel/task.o
 .debug_info    0x0000b5c9      0xf4a ./MQXLITE/kernel/mqxlite.o
 .debug_info    0x0000c513      0xce1 ./MQXLITE/kernel/mqx_utils.o
 .debug_info    0x0000d1f4     0x13dd ./MQXLITE/kernel/lwsem.o
 .debug_info    0x0000e5d1     0x12b4 ./MQXLITE/kernel/lwevent.o
 .debug_info    0x0000f885     0x1096 ./MQXLITE/kernel/int.o
 .debug_info    0x0001091b      0xb0c ./MQXLITE/kernel/idletask.o
 .debug_info    0x00011427       0x84 ./MQXLITE/psp/cortex_m/core/M0/dispatch.o
 .debug_info    0x000114ab       0x80 ./MQXLITE/psp/cortex_m/core/M0/boot.o
 .debug_info    0x0001152b      0x44b ./MQXLITE/psp/cortex_m/stack_de.o
 .debug_info    0x00011976      0x68c ./MQXLITE/psp/cortex_m/stack_bu.o
 .debug_info    0x00012002      0xccd ./MQXLITE/psp/cortex_m/sc_irdyq.o
 .debug_info    0x00012ccf      0xb94 ./MQXLITE/psp/cortex_m/psp_tinm.o
 .debug_info    0x00013863      0xb98 ./MQXLITE/psp/cortex_m/psp_tiad.o
 .debug_info    0x000143fb       0xda ./MQXLITE/psp/cortex_m/psp_iinit.o
 .debug_info    0x000144d5      0x143 ./MQXLITE/psp/cortex_m/mem_zero.o
 .debug_info    0x00014618      0xdc1 ./MQXLITE/psp/cortex_m/int_vtab.o
 .debug_info    0x000153d9      0xafa ./MQXLITE/psp/cortex_m/int_inst.o
 .debug_info    0x00015ed3      0x148 ./Project_Settings/Startup_Code/__arm_start.o
 .debug_info    0x0001601b       0x55 ./Project_Settings/Startup_Code/__arm_end.o
 .debug_info    0x00016070      0x71c ./Sources/user_tasks.o
 .debug_info    0x0001678c     0x1508 ./Sources/tasks_func.o
 .debug_info    0x00017c94      0x79d ./Sources/mqx_tasks.o
 .debug_info    0x00018431       0x96 ./Sources/main.o
 .debug_info    0x000184c7     0x2805 ./Sources/FSL_utils.o
 .debug_info    0x0001accc      0x6a5 ./Sources/Events.o
 .debug_info    0x0001b371      0x11e C:/Appz/Freescale/CW MCU v10.6/MCU/ARM_GCC_Support/ewl/lib/armv6-m\libc.a(sprintf.o)
 .debug_info    0x0001b48f      0x205 C:/Appz/Freescale/CW MCU v10.6/MCU/ARM_GCC_Support/ewl/lib/armv6-m\libc.a(vsnprintf.o)
 .debug_info    0x0001b694       0xe8 C:/Appz/Freescale/CW MCU v10.6/MCU/ARM_GCC_Support/ewl/lib/armv6-m\libc.a(exit.o)
 .debug_info    0x0001b77c      0x10f C:/Appz/Freescale/CW MCU v10.6/MCU/ARM_GCC_Support/ewl/lib/armv6-m\libc.a(memcpy.o)
 .debug_info    0x0001b88b       0xec C:/Appz/Freescale/CW MCU v10.6/MCU/ARM_GCC_Support/ewl/lib/armv6-m\libc.a(memset.o)
 .debug_info    0x0001b977      0x764 C:/Appz/Freescale/CW MCU v10.6/MCU/ARM_GCC_Support/ewl/lib/armv6-m\libc.a(printformat_fp.o)
 .debug_info    0x0001c0db      0x5c9 C:/Appz/Freescale/CW MCU v10.6/MCU/ARM_GCC_Support/ewl/lib/armv6-m\libc.a(scanformat_fp.o)
 .debug_info    0x0001c6a4      0x313 C:/Appz/Freescale/CW MCU v10.6/MCU/ARM_GCC_Support/ewl/lib/armv6-m\libc.a(ctype_aeabi.o)
 .debug_info    0x0001c9b7      0x771 C:/Appz/Freescale/CW MCU v10.6/MCU/ARM_GCC_Support/ewl/lib/armv6-m\libc.a(__strtold.o)
 .debug_info    0x0001d128      0x1d6 C:/Appz/Freescale/CW MCU v10.6/MCU/ARM_GCC_Support/ewl/lib/armv6-m\libc.a(__strtoul.o)
 .debug_info    0x0001d2fe      0x137 C:/Appz/Freescale/CW MCU v10.6/MCU/ARM_GCC_Support/ewl/lib/armv6-m\libc.a(__filll_mem.o)
 .debug_info    0x0001d435      0x121 C:/Appz/Freescale/CW MCU v10.6/MCU/ARM_GCC_Support/ewl/lib/armv6-m\libc.a(memchr.o)
 .debug_info    0x0001d556      0x10b C:/Appz/Freescale/CW MCU v10.6/MCU/ARM_GCC_Support/ewl/lib/armv6-m\libc.a(strchr.o)
 .debug_info    0x0001d661      0x109 C:/Appz/Freescale/CW MCU v10.6/MCU/ARM_GCC_Support/ewl/lib/armv6-m\libc.a(strcpy.o)
 .debug_info    0x0001d76a       0xea C:/Appz/Freescale/CW MCU v10.6/MCU/ARM_GCC_Support/ewl/lib/armv6-m\libc.a(strlen.o)
 .debug_info    0x0001d854       0x9d C:/Appz/Freescale/CW MCU v10.6/MCU/ARM_GCC_Support/ewl/lib/armv6-m\libc.a(errno.o)
 .debug_info    0x0001d8f1      0x51c C:/Appz/Freescale/CW MCU v10.6/MCU/ARM_GCC_Support/ewl/lib/armv6-m\libm.a(ansi_fp.o)
 .debug_info    0x0001de0d      0x1e4 C:/Appz/Freescale/CW MCU v10.6/MCU/ARM_GCC_Support/ewl/lib/armv6-m\libm.a(float.o)
 .debug_info    0x0001dff1      0x305 C:/Appz/Freescale/CW MCU v10.6/MCU/ARM_GCC_Support/ewl/lib/armv6-m\libm.a(math_api.o)
 .debug_info    0x0001e2f6      0x1a1 C:/Appz/Freescale/CW MCU v10.6/MCU/ARM_GCC_Support/ewl/lib/armv6-m\libm.a(s_frexp.o)
 .debug_info    0x0001e497      0x158 C:/Appz/Freescale/CW MCU v10.6/MCU/ARM_GCC_Support/ewl/lib/armv6-m\libm.a(s_sinf.o)
 .debug_info    0x0001e5ef       0xb2 C:/Appz/Freescale/CW MCU v10.6/MCU/ARM_GCC_Support/ewl/lib/armv6-m\libm.a(w_acosf.o)
 .debug_info    0x0001e6a1       0xc0 C:/Appz/Freescale/CW MCU v10.6/MCU/ARM_GCC_Support/ewl/lib/armv6-m\libm.a(w_pow.o)
 .debug_info    0x0001e761       0xc0 C:/Appz/Freescale/CW MCU v10.6/MCU/ARM_GCC_Support/ewl/lib/armv6-m\libm.a(w_powf.o)
 .debug_info    0x0001e821       0xb3 C:/Appz/Freescale/CW MCU v10.6/MCU/ARM_GCC_Support/ewl/lib/armv6-m\libm.a(w_sqrtf.o)
 .debug_info    0x0001e8d4      0x2b0 C:/Appz/Freescale/CW MCU v10.6/MCU/ARM_GCC_Support/ewl/lib/armv6-m\libm.a(e_acosf.o)
 .debug_info    0x0001eb84      0x5c7 C:/Appz/Freescale/CW MCU v10.6/MCU/ARM_GCC_Support/ewl/lib/armv6-m\libm.a(e_pow.o)
 .debug_info    0x0001f14b      0x4e5 C:/Appz/Freescale/CW MCU v10.6/MCU/ARM_GCC_Support/ewl/lib/armv6-m\libm.a(e_powf.o)
 .debug_info    0x0001f630      0x2ec C:/Appz/Freescale/CW MCU v10.6/MCU/ARM_GCC_Support/ewl/lib/armv6-m\libm.a(e_rem_pio2f.o)
 .debug_info    0x0001f91c      0x1c0 C:/Appz/Freescale/CW MCU v10.6/MCU/ARM_GCC_Support/ewl/lib/armv6-m\libm.a(e_sqrtf.o)
 .debug_info    0x0001fadc      0x1c8 C:/Appz/Freescale/CW MCU v10.6/MCU/ARM_GCC_Support/ewl/lib/armv6-m\libm.a(k_cosf.o)
 .debug_info    0x0001fca4      0x304 C:/Appz/Freescale/CW MCU v10.6/MCU/ARM_GCC_Support/ewl/lib/armv6-m\libm.a(k_rem_pio2f.o)
 .debug_info    0x0001ffa8      0x1be C:/Appz/Freescale/CW MCU v10.6/MCU/ARM_GCC_Support/ewl/lib/armv6-m\libm.a(k_sinf.o)
 .debug_info    0x00020166      0x142 C:/Appz/Freescale/CW MCU v10.6/MCU/ARM_GCC_Support/ewl/lib/armv6-m\libm.a(s_floorf.o)
 .debug_info    0x000202a8      0x18b C:/Appz/Freescale/CW MCU v10.6/MCU/ARM_GCC_Support/ewl/lib/armv6-m\libm.a(s_scalbnf.o)
 .debug_info    0x00020433       0xf9 C:/Appz/Freescale/CW MCU v10.6/MCU/ARM_GCC_Support/ewl/lib/armv6-m\libm.a(scalbn.o)
 .debug_info    0x0002052c       0xb3 C:/Appz/Freescale/CW MCU v10.6/MCU/ARM_GCC_Support/ewl/lib/armv6-m\libm.a(w_sqrt.o)
 .debug_info    0x000205df      0x266 C:/Appz/Freescale/CW MCU v10.6/MCU/ARM_GCC_Support/ewl/lib/armv6-m\libm.a(e_sqrt.o)
 .debug_info    0x00020845      0x1e2 C:/Appz/Freescale/CW MCU v10.6/MCU/ARM_GCC_Support/ewl/lib/armv6-m\libm.a(s_ldexp.o)
 .debug_info    0x00020a27      0x136 C:/Appz/Freescale/CW MCU v10.6/MCU/ARM_GCC_Support/ewl/lib/armv6-m\librt.a(gcc_ctor_dtor.o)
 .debug_info    0x00020b5d      0x19b C:/Appz/Freescale/CW MCU v10.6/MCU/ARM_GCC_Support/ewl/lib/armv6-m\librt.a(ROMCopy.o)
 .debug_info    0x00020cf8      0x2b9 C:/Appz/Freescale/CW MCU v10.6/MCU/ARM_GCC_Support/ewl/lib/armv6-m\librt.a(__arm_eabi_init.o)
 .debug_info    0x00020fb1       0x94 C:/Appz/Freescale/CW MCU v10.6/MCU/ARM_GCC_Support/ewl/lib/armv6-m\librt.a(setjmp.o)
 .debug_info    0x00021045      0x231 C:/Appz/Freescale/CW MCU v10.6/MCU/ARM_GCC_Support/ewl/lib/armv6-m\libhosted.a(semihosted_console_io.o)
 .debug_info    0x00021276      0xc6b C:/Appz/Freescale/CW MCU v10.6/MCU/ARM_GCC_Support/ewl/lib/armv6-m\libhosted.a(semihosted_file_io.o)

.debug_abbrev   0x00000000     0x6b99
 .debug_abbrev  0x00000000       0xb9 ./Generated_Code/Vectors.o
 .debug_abbrev  0x000000b9      0x244 ./Generated_Code/UART.o
 .debug_abbrev  0x000002fd      0x14f ./Generated_Code/TestPin_MagCal_Time.o
 .debug_abbrev  0x0000044c      0x14f ./Generated_Code/TestPin_KF_Time.o
 .debug_abbrev  0x0000059b      0x1ef ./Generated_Code/TU1.o
 .debug_abbrev  0x0000078a      0x228 ./Generated_Code/SystemTimer1.o
 .debug_abbrev  0x000009b2      0x145 ./Generated_Code/PWM1.o
 .debug_abbrev  0x00000af7      0x14d ./Generated_Code/PE_LDD.o
 .debug_abbrev  0x00000c44      0x19a ./Generated_Code/MQX1.o
 .debug_abbrev  0x00000dde      0x175 ./Generated_Code/LED_RED.o
 .debug_abbrev  0x00000f53      0x175 ./Generated_Code/LED_GREEN.o
 .debug_abbrev  0x000010c8      0x1f4 ./Generated_Code/I2C.o
 .debug_abbrev  0x000012bc      0x18a ./Generated_Code/FTM.o
 .debug_abbrev  0x00001446      0x15d ./Generated_Code/Cpu.o
 .debug_abbrev  0x000015a3      0x1a4 ./Generated_Code/BitIoLdd6.o
 .debug_abbrev  0x00001747      0x1a4 ./Generated_Code/BitIoLdd5.o
 .debug_abbrev  0x000018eb      0x1a4 ./Generated_Code/BitIoLdd4.o
 .debug_abbrev  0x00001a8f      0x1a4 ./Generated_Code/BitIoLdd3.o
 .debug_abbrev  0x00001c33      0x1a4 ./Generated_Code/BitIoLdd2.o
 .debug_abbrev  0x00001dd7      0x1ac ./Generated_Code/BitIoLdd1.o
 .debug_abbrev  0x00001f83       0xb9 ./MQXLITE/config/task_template_list.o
 .debug_abbrev  0x0000203c      0x272 ./MQXLITE/kernel/time_ticks.o
 .debug_abbrev  0x000022ae      0x349 ./MQXLITE/kernel/task.o
 .debug_abbrev  0x000025f7      0x1ef ./MQXLITE/kernel/mqxlite.o
 .debug_abbrev  0x000027e6      0x1b1 ./MQXLITE/kernel/mqx_utils.o
 .debug_abbrev  0x00002997      0x242 ./MQXLITE/kernel/lwsem.o
 .debug_abbrev  0x00002bd9      0x243 ./MQXLITE/kernel/lwevent.o
 .debug_abbrev  0x00002e1c      0x26c ./MQXLITE/kernel/int.o
 .debug_abbrev  0x00003088      0x12d ./MQXLITE/kernel/idletask.o
 .debug_abbrev  0x000031b5       0x14 ./MQXLITE/psp/cortex_m/core/M0/dispatch.o
 .debug_abbrev  0x000031c9       0x14 ./MQXLITE/psp/cortex_m/core/M0/boot.o
 .debug_abbrev  0x000031dd       0xdb ./MQXLITE/psp/cortex_m/stack_de.o
 .debug_abbrev  0x000032b8      0x125 ./MQXLITE/psp/cortex_m/stack_bu.o
 .debug_abbrev  0x000033dd      0x192 ./MQXLITE/psp/cortex_m/sc_irdyq.o
 .debug_abbrev  0x0000356f      0x13e ./MQXLITE/psp/cortex_m/psp_tinm.o
 .debug_abbrev  0x000036ad      0x144 ./MQXLITE/psp/cortex_m/psp_tiad.o
 .debug_abbrev  0x000037f1       0x6a ./MQXLITE/psp/cortex_m/psp_iinit.o
 .debug_abbrev  0x0000385b       0x78 ./MQXLITE/psp/cortex_m/mem_zero.o
 .debug_abbrev  0x000038d3      0x16d ./MQXLITE/psp/cortex_m/int_vtab.o
 .debug_abbrev  0x00003a40      0x117 ./MQXLITE/psp/cortex_m/int_inst.o
 .debug_abbrev  0x00003b57       0xc2 ./Project_Settings/Startup_Code/__arm_start.o
 .debug_abbrev  0x00003c19       0x4c ./Project_Settings/Startup_Code/__arm_end.o
 .debug_abbrev  0x00003c65      0x17a ./Sources/user_tasks.o
 .debug_abbrev  0x00003ddf      0x20e ./Sources/tasks_func.o
 .debug_abbrev  0x00003fed      0x13a ./Sources/mqx_tasks.o
 .debug_abbrev  0x00004127       0x3f ./Sources/main.o
 .debug_abbrev  0x00004166      0x297 ./Sources/FSL_utils.o
 .debug_abbrev  0x000043fd      0x154 ./Sources/Events.o
 .debug_abbrev  0x00004551       0xb1 C:/Appz/Freescale/CW MCU v10.6/MCU/ARM_GCC_Support/ewl/lib/armv6-m\libc.a(sprintf.o)
 .debug_abbrev  0x00004602       0xf0 C:/Appz/Freescale/CW MCU v10.6/MCU/ARM_GCC_Support/ewl/lib/armv6-m\libc.a(vsnprintf.o)
 .debug_abbrev  0x000046f2       0x7a C:/Appz/Freescale/CW MCU v10.6/MCU/ARM_GCC_Support/ewl/lib/armv6-m\libc.a(exit.o)
 .debug_abbrev  0x0000476c       0x95 C:/Appz/Freescale/CW MCU v10.6/MCU/ARM_GCC_Support/ewl/lib/armv6-m\libc.a(memcpy.o)
 .debug_abbrev  0x00004801       0x62 C:/Appz/Freescale/CW MCU v10.6/MCU/ARM_GCC_Support/ewl/lib/armv6-m\libc.a(memset.o)
 .debug_abbrev  0x00004863      0x254 C:/Appz/Freescale/CW MCU v10.6/MCU/ARM_GCC_Support/ewl/lib/armv6-m\libc.a(printformat_fp.o)
 .debug_abbrev  0x00004ab7      0x206 C:/Appz/Freescale/CW MCU v10.6/MCU/ARM_GCC_Support/ewl/lib/armv6-m\libc.a(scanformat_fp.o)
 .debug_abbrev  0x00004cbd       0x9e C:/Appz/Freescale/CW MCU v10.6/MCU/ARM_GCC_Support/ewl/lib/armv6-m\libc.a(ctype_aeabi.o)
 .debug_abbrev  0x00004d5b      0x1b3 C:/Appz/Freescale/CW MCU v10.6/MCU/ARM_GCC_Support/ewl/lib/armv6-m\libc.a(__strtold.o)
 .debug_abbrev  0x00004f0e       0xc2 C:/Appz/Freescale/CW MCU v10.6/MCU/ARM_GCC_Support/ewl/lib/armv6-m\libc.a(__strtoul.o)
 .debug_abbrev  0x00004fd0       0x78 C:/Appz/Freescale/CW MCU v10.6/MCU/ARM_GCC_Support/ewl/lib/armv6-m\libc.a(__filll_mem.o)
 .debug_abbrev  0x00005048       0x95 C:/Appz/Freescale/CW MCU v10.6/MCU/ARM_GCC_Support/ewl/lib/armv6-m\libc.a(memchr.o)
 .debug_abbrev  0x000050dd       0x7a C:/Appz/Freescale/CW MCU v10.6/MCU/ARM_GCC_Support/ewl/lib/armv6-m\libc.a(strchr.o)
 .debug_abbrev  0x00005157       0x78 C:/Appz/Freescale/CW MCU v10.6/MCU/ARM_GCC_Support/ewl/lib/armv6-m\libc.a(strcpy.o)
 .debug_abbrev  0x000051cf       0x7a C:/Appz/Freescale/CW MCU v10.6/MCU/ARM_GCC_Support/ewl/lib/armv6-m\libc.a(strlen.o)
 .debug_abbrev  0x00005249       0x44 C:/Appz/Freescale/CW MCU v10.6/MCU/ARM_GCC_Support/ewl/lib/armv6-m\libc.a(errno.o)
 .debug_abbrev  0x0000528d      0x15d C:/Appz/Freescale/CW MCU v10.6/MCU/ARM_GCC_Support/ewl/lib/armv6-m\libm.a(ansi_fp.o)
 .debug_abbrev  0x000053ea       0x56 C:/Appz/Freescale/CW MCU v10.6/MCU/ARM_GCC_Support/ewl/lib/armv6-m\libm.a(float.o)
 .debug_abbrev  0x00005440       0xe8 C:/Appz/Freescale/CW MCU v10.6/MCU/ARM_GCC_Support/ewl/lib/armv6-m\libm.a(math_api.o)
 .debug_abbrev  0x00005528       0xce C:/Appz/Freescale/CW MCU v10.6/MCU/ARM_GCC_Support/ewl/lib/armv6-m\libm.a(s_frexp.o)
 .debug_abbrev  0x000055f6       0xbb C:/Appz/Freescale/CW MCU v10.6/MCU/ARM_GCC_Support/ewl/lib/armv6-m\libm.a(s_sinf.o)
 .debug_abbrev  0x000056b1       0x59 C:/Appz/Freescale/CW MCU v10.6/MCU/ARM_GCC_Support/ewl/lib/armv6-m\libm.a(w_acosf.o)
 .debug_abbrev  0x0000570a       0x59 C:/Appz/Freescale/CW MCU v10.6/MCU/ARM_GCC_Support/ewl/lib/armv6-m\libm.a(w_pow.o)
 .debug_abbrev  0x00005763       0x59 C:/Appz/Freescale/CW MCU v10.6/MCU/ARM_GCC_Support/ewl/lib/armv6-m\libm.a(w_powf.o)
 .debug_abbrev  0x000057bc       0x59 C:/Appz/Freescale/CW MCU v10.6/MCU/ARM_GCC_Support/ewl/lib/armv6-m\libm.a(w_sqrtf.o)
 .debug_abbrev  0x00005815       0xe7 C:/Appz/Freescale/CW MCU v10.6/MCU/ARM_GCC_Support/ewl/lib/armv6-m\libm.a(e_acosf.o)
 .debug_abbrev  0x000058fc      0x157 C:/Appz/Freescale/CW MCU v10.6/MCU/ARM_GCC_Support/ewl/lib/armv6-m\libm.a(e_pow.o)
 .debug_abbrev  0x00005a53      0x127 C:/Appz/Freescale/CW MCU v10.6/MCU/ARM_GCC_Support/ewl/lib/armv6-m\libm.a(e_powf.o)
 .debug_abbrev  0x00005b7a      0x105 C:/Appz/Freescale/CW MCU v10.6/MCU/ARM_GCC_Support/ewl/lib/armv6-m\libm.a(e_rem_pio2f.o)
 .debug_abbrev  0x00005c7f       0xdf C:/Appz/Freescale/CW MCU v10.6/MCU/ARM_GCC_Support/ewl/lib/armv6-m\libm.a(e_sqrtf.o)
 .debug_abbrev  0x00005d5e       0xb0 C:/Appz/Freescale/CW MCU v10.6/MCU/ARM_GCC_Support/ewl/lib/armv6-m\libm.a(k_cosf.o)
 .debug_abbrev  0x00005e0e      0x100 C:/Appz/Freescale/CW MCU v10.6/MCU/ARM_GCC_Support/ewl/lib/armv6-m\libm.a(k_rem_pio2f.o)
 .debug_abbrev  0x00005f0e       0xbf C:/Appz/Freescale/CW MCU v10.6/MCU/ARM_GCC_Support/ewl/lib/armv6-m\libm.a(k_sinf.o)
 .debug_abbrev  0x00005fcd       0xa3 C:/Appz/Freescale/CW MCU v10.6/MCU/ARM_GCC_Support/ewl/lib/armv6-m\libm.a(s_floorf.o)
 .debug_abbrev  0x00006070       0xb2 C:/Appz/Freescale/CW MCU v10.6/MCU/ARM_GCC_Support/ewl/lib/armv6-m\libm.a(s_scalbnf.o)
 .debug_abbrev  0x00006122       0x86 C:/Appz/Freescale/CW MCU v10.6/MCU/ARM_GCC_Support/ewl/lib/armv6-m\libm.a(scalbn.o)
 .debug_abbrev  0x000061a8       0x59 C:/Appz/Freescale/CW MCU v10.6/MCU/ARM_GCC_Support/ewl/lib/armv6-m\libm.a(w_sqrt.o)
 .debug_abbrev  0x00006201      0x10b C:/Appz/Freescale/CW MCU v10.6/MCU/ARM_GCC_Support/ewl/lib/armv6-m\libm.a(e_sqrt.o)
 .debug_abbrev  0x0000630c       0xce C:/Appz/Freescale/CW MCU v10.6/MCU/ARM_GCC_Support/ewl/lib/armv6-m\libm.a(s_ldexp.o)
 .debug_abbrev  0x000063da       0x99 C:/Appz/Freescale/CW MCU v10.6/MCU/ARM_GCC_Support/ewl/lib/armv6-m\librt.a(gcc_ctor_dtor.o)
 .debug_abbrev  0x00006473      0x120 C:/Appz/Freescale/CW MCU v10.6/MCU/ARM_GCC_Support/ewl/lib/armv6-m\librt.a(ROMCopy.o)
 .debug_abbrev  0x00006593      0x1b3 C:/Appz/Freescale/CW MCU v10.6/MCU/ARM_GCC_Support/ewl/lib/armv6-m\librt.a(__arm_eabi_init.o)
 .debug_abbrev  0x00006746       0x7b C:/Appz/Freescale/CW MCU v10.6/MCU/ARM_GCC_Support/ewl/lib/armv6-m\librt.a(setjmp.o)
 .debug_abbrev  0x000067c1      0x15d C:/Appz/Freescale/CW MCU v10.6/MCU/ARM_GCC_Support/ewl/lib/armv6-m\libhosted.a(semihosted_console_io.o)
 .debug_abbrev  0x0000691e      0x27b C:/Appz/Freescale/CW MCU v10.6/MCU/ARM_GCC_Support/ewl/lib/armv6-m\libhosted.a(semihosted_file_io.o)

.debug_aranges  0x00000000     0x14e8
 .debug_aranges
                0x00000000       0x18 ./Generated_Code/Vectors.o
 .debug_aranges
                0x00000018       0x40 ./Generated_Code/UART.o
 .debug_aranges
                0x00000058       0x40 ./Generated_Code/TestPin_MagCal_Time.o
 .debug_aranges
                0x00000098       0x40 ./Generated_Code/TestPin_KF_Time.o
 .debug_aranges
                0x000000d8       0x48 ./Generated_Code/TU1.o
 .debug_aranges
                0x00000120       0x60 ./Generated_Code/SystemTimer1.o
 .debug_aranges
                0x00000180       0x30 ./Generated_Code/PWM1.o
 .debug_aranges
                0x000001b0       0x30 ./Generated_Code/PE_LDD.o
 .debug_aranges
                0x000001e0       0x30 ./Generated_Code/MQX1.o
 .debug_aranges
                0x00000210       0x48 ./Generated_Code/LED_RED.o
 .debug_aranges
                0x00000258       0x48 ./Generated_Code/LED_GREEN.o
 .debug_aranges
                0x000002a0       0x68 ./Generated_Code/I2C.o
 .debug_aranges
                0x00000308       0x30 ./Generated_Code/FTM.o
 .debug_aranges
                0x00000338       0x38 ./Generated_Code/Cpu.o
 .debug_aranges
                0x00000370       0x48 ./Generated_Code/BitIoLdd6.o
 .debug_aranges
                0x000003b8       0x48 ./Generated_Code/BitIoLdd5.o
 .debug_aranges
                0x00000400       0x48 ./Generated_Code/BitIoLdd4.o
 .debug_aranges
                0x00000448       0x48 ./Generated_Code/BitIoLdd3.o
 .debug_aranges
                0x00000490       0x48 ./Generated_Code/BitIoLdd2.o
 .debug_aranges
                0x000004d8       0x50 ./Generated_Code/BitIoLdd1.o
 .debug_aranges
                0x00000528       0x18 ./MQXLITE/config/task_template_list.o
 .debug_aranges
                0x00000540       0xb8 ./MQXLITE/kernel/time_ticks.o
 .debug_aranges
                0x000005f8      0x168 ./MQXLITE/kernel/task.o
 .debug_aranges
                0x00000760       0x30 ./MQXLITE/kernel/mqxlite.o
 .debug_aranges
                0x00000790       0x60 ./MQXLITE/kernel/mqx_utils.o
 .debug_aranges
                0x000007f0       0x80 ./MQXLITE/kernel/lwsem.o
 .debug_aranges
                0x00000870       0x80 ./MQXLITE/kernel/lwevent.o
 .debug_aranges
                0x000008f0       0x90 ./MQXLITE/kernel/int.o
 .debug_aranges
                0x00000980       0x20 ./MQXLITE/kernel/idletask.o
 .debug_aranges
                0x000009a0       0x20 ./MQXLITE/psp/cortex_m/core/M0/dispatch.o
 .debug_aranges
                0x000009c0       0x20 ./MQXLITE/psp/cortex_m/core/M0/boot.o
 .debug_aranges
                0x000009e0       0x20 ./MQXLITE/psp/cortex_m/stack_de.o
 .debug_aranges
                0x00000a00       0x20 ./MQXLITE/psp/cortex_m/stack_bu.o
 .debug_aranges
                0x00000a20       0x28 ./MQXLITE/psp/cortex_m/sc_irdyq.o
 .debug_aranges
                0x00000a48       0x20 ./MQXLITE/psp/cortex_m/psp_tinm.o
 .debug_aranges
                0x00000a68       0x20 ./MQXLITE/psp/cortex_m/psp_tiad.o
 .debug_aranges
                0x00000a88       0x20 ./MQXLITE/psp/cortex_m/psp_iinit.o
 .debug_aranges
                0x00000aa8       0x20 ./MQXLITE/psp/cortex_m/mem_zero.o
 .debug_aranges
                0x00000ac8       0x28 ./MQXLITE/psp/cortex_m/int_vtab.o
 .debug_aranges
                0x00000af0       0x20 ./MQXLITE/psp/cortex_m/int_inst.o
 .debug_aranges
                0x00000b10       0x28 ./Project_Settings/Startup_Code/__arm_start.o
 .debug_aranges
                0x00000b38       0x20 ./Project_Settings/Startup_Code/__arm_end.o
 .debug_aranges
                0x00000b58       0x40 ./Sources/user_tasks.o
 .debug_aranges
                0x00000b98       0x58 ./Sources/tasks_func.o
 .debug_aranges
                0x00000bf0       0x38 ./Sources/mqx_tasks.o
 .debug_aranges
                0x00000c28       0x20 ./Sources/main.o
 .debug_aranges
                0x00000c48       0x90 ./Sources/FSL_utils.o
 .debug_aranges
                0x00000cd8       0x58 ./Sources/Events.o
 .debug_aranges
                0x00000d30       0x20 C:/Appz/Freescale/CW MCU v10.6/MCU/ARM_GCC_Support/ewl/lib/armv6-m\libc.a(sprintf.o)
 .debug_aranges
                0x00000d50       0x28 C:/Appz/Freescale/CW MCU v10.6/MCU/ARM_GCC_Support/ewl/lib/armv6-m\libc.a(vsnprintf.o)
 .debug_aranges
                0x00000d78       0x20 C:/Appz/Freescale/CW MCU v10.6/MCU/ARM_GCC_Support/ewl/lib/armv6-m\libc.a(exit.o)
 .debug_aranges
                0x00000d98       0x20 C:/Appz/Freescale/CW MCU v10.6/MCU/ARM_GCC_Support/ewl/lib/armv6-m\libc.a(memcpy.o)
 .debug_aranges
                0x00000db8       0x20 C:/Appz/Freescale/CW MCU v10.6/MCU/ARM_GCC_Support/ewl/lib/armv6-m\libc.a(memset.o)
 .debug_aranges
                0x00000dd8       0x28 C:/Appz/Freescale/CW MCU v10.6/MCU/ARM_GCC_Support/ewl/lib/armv6-m\libc.a(printformat_fp.o)
 .debug_aranges
                0x00000e00       0x20 C:/Appz/Freescale/CW MCU v10.6/MCU/ARM_GCC_Support/ewl/lib/armv6-m\libc.a(scanformat_fp.o)
 .debug_aranges
                0x00000e20       0x88 C:/Appz/Freescale/CW MCU v10.6/MCU/ARM_GCC_Support/ewl/lib/armv6-m\libc.a(ctype_aeabi.o)
 .debug_aranges
                0x00000ea8       0x38 C:/Appz/Freescale/CW MCU v10.6/MCU/ARM_GCC_Support/ewl/lib/armv6-m\libc.a(__strtold.o)
 .debug_aranges
                0x00000ee0       0x20 C:/Appz/Freescale/CW MCU v10.6/MCU/ARM_GCC_Support/ewl/lib/armv6-m\libc.a(__strtoul.o)
 .debug_aranges
                0x00000f00       0x20 C:/Appz/Freescale/CW MCU v10.6/MCU/ARM_GCC_Support/ewl/lib/armv6-m\libc.a(__filll_mem.o)
 .debug_aranges
                0x00000f20       0x20 C:/Appz/Freescale/CW MCU v10.6/MCU/ARM_GCC_Support/ewl/lib/armv6-m\libc.a(memchr.o)
 .debug_aranges
                0x00000f40       0x20 C:/Appz/Freescale/CW MCU v10.6/MCU/ARM_GCC_Support/ewl/lib/armv6-m\libc.a(strchr.o)
 .debug_aranges
                0x00000f60       0x20 C:/Appz/Freescale/CW MCU v10.6/MCU/ARM_GCC_Support/ewl/lib/armv6-m\libc.a(strcpy.o)
 .debug_aranges
                0x00000f80       0x20 C:/Appz/Freescale/CW MCU v10.6/MCU/ARM_GCC_Support/ewl/lib/armv6-m\libc.a(strlen.o)
 .debug_aranges
                0x00000fa0       0x18 C:/Appz/Freescale/CW MCU v10.6/MCU/ARM_GCC_Support/ewl/lib/armv6-m\libc.a(errno.o)
 .debug_aranges
                0x00000fb8       0x30 C:/Appz/Freescale/CW MCU v10.6/MCU/ARM_GCC_Support/ewl/lib/armv6-m\libm.a(ansi_fp.o)
 .debug_aranges
                0x00000fe8       0x18 C:/Appz/Freescale/CW MCU v10.6/MCU/ARM_GCC_Support/ewl/lib/armv6-m\libm.a(float.o)
 .debug_aranges
                0x00001000       0x60 C:/Appz/Freescale/CW MCU v10.6/MCU/ARM_GCC_Support/ewl/lib/armv6-m\libm.a(math_api.o)
 .debug_aranges
                0x00001060       0x20 C:/Appz/Freescale/CW MCU v10.6/MCU/ARM_GCC_Support/ewl/lib/armv6-m\libm.a(s_frexp.o)
 .debug_aranges
                0x00001080       0x20 C:/Appz/Freescale/CW MCU v10.6/MCU/ARM_GCC_Support/ewl/lib/armv6-m\libm.a(s_sinf.o)
 .debug_aranges
                0x000010a0       0x20 C:/Appz/Freescale/CW MCU v10.6/MCU/ARM_GCC_Support/ewl/lib/armv6-m\libm.a(w_acosf.o)
 .debug_aranges
                0x000010c0       0x20 C:/Appz/Freescale/CW MCU v10.6/MCU/ARM_GCC_Support/ewl/lib/armv6-m\libm.a(w_pow.o)
 .debug_aranges
                0x000010e0       0x20 C:/Appz/Freescale/CW MCU v10.6/MCU/ARM_GCC_Support/ewl/lib/armv6-m\libm.a(w_powf.o)
 .debug_aranges
                0x00001100       0x20 C:/Appz/Freescale/CW MCU v10.6/MCU/ARM_GCC_Support/ewl/lib/armv6-m\libm.a(w_sqrtf.o)
 .debug_aranges
                0x00001120       0x20 C:/Appz/Freescale/CW MCU v10.6/MCU/ARM_GCC_Support/ewl/lib/armv6-m\libm.a(e_acosf.o)
 .debug_aranges
                0x00001140       0x20 C:/Appz/Freescale/CW MCU v10.6/MCU/ARM_GCC_Support/ewl/lib/armv6-m\libm.a(e_pow.o)
 .debug_aranges
                0x00001160       0x20 C:/Appz/Freescale/CW MCU v10.6/MCU/ARM_GCC_Support/ewl/lib/armv6-m\libm.a(e_powf.o)
 .debug_aranges
                0x00001180       0x20 C:/Appz/Freescale/CW MCU v10.6/MCU/ARM_GCC_Support/ewl/lib/armv6-m\libm.a(e_rem_pio2f.o)
 .debug_aranges
                0x000011a0       0x20 C:/Appz/Freescale/CW MCU v10.6/MCU/ARM_GCC_Support/ewl/lib/armv6-m\libm.a(e_sqrtf.o)
 .debug_aranges
                0x000011c0       0x20 C:/Appz/Freescale/CW MCU v10.6/MCU/ARM_GCC_Support/ewl/lib/armv6-m\libm.a(k_cosf.o)
 .debug_aranges
                0x000011e0       0x20 C:/Appz/Freescale/CW MCU v10.6/MCU/ARM_GCC_Support/ewl/lib/armv6-m\libm.a(k_rem_pio2f.o)
 .debug_aranges
                0x00001200       0x20 C:/Appz/Freescale/CW MCU v10.6/MCU/ARM_GCC_Support/ewl/lib/armv6-m\libm.a(k_sinf.o)
 .debug_aranges
                0x00001220       0x20 C:/Appz/Freescale/CW MCU v10.6/MCU/ARM_GCC_Support/ewl/lib/armv6-m\libm.a(s_floorf.o)
 .debug_aranges
                0x00001240       0x20 C:/Appz/Freescale/CW MCU v10.6/MCU/ARM_GCC_Support/ewl/lib/armv6-m\libm.a(s_scalbnf.o)
 .debug_aranges
                0x00001260       0x20 C:/Appz/Freescale/CW MCU v10.6/MCU/ARM_GCC_Support/ewl/lib/armv6-m\libm.a(scalbn.o)
 .debug_aranges
                0x00001280       0x20 C:/Appz/Freescale/CW MCU v10.6/MCU/ARM_GCC_Support/ewl/lib/armv6-m\libm.a(w_sqrt.o)
 .debug_aranges
                0x000012a0       0x20 C:/Appz/Freescale/CW MCU v10.6/MCU/ARM_GCC_Support/ewl/lib/armv6-m\libm.a(e_sqrt.o)
 .debug_aranges
                0x000012c0       0x20 C:/Appz/Freescale/CW MCU v10.6/MCU/ARM_GCC_Support/ewl/lib/armv6-m\libm.a(s_ldexp.o)
 .debug_aranges
                0x000012e0       0x28 C:/Appz/Freescale/CW MCU v10.6/MCU/ARM_GCC_Support/ewl/lib/armv6-m\librt.a(gcc_ctor_dtor.o)
 .debug_aranges
                0x00001308       0x30 C:/Appz/Freescale/CW MCU v10.6/MCU/ARM_GCC_Support/ewl/lib/armv6-m\librt.a(ROMCopy.o)
 .debug_aranges
                0x00001338       0x58 C:/Appz/Freescale/CW MCU v10.6/MCU/ARM_GCC_Support/ewl/lib/armv6-m\librt.a(__arm_eabi_init.o)
 .debug_aranges
                0x00001390       0x28 C:/Appz/Freescale/CW MCU v10.6/MCU/ARM_GCC_Support/ewl/lib/armv6-m\librt.a(setjmp.o)
 .debug_aranges
                0x000013b8       0x50 C:/Appz/Freescale/CW MCU v10.6/MCU/ARM_GCC_Support/ewl/lib/armv6-m\libhosted.a(semihosted_console_io.o)
 .debug_aranges
                0x00001408       0xe0 C:/Appz/Freescale/CW MCU v10.6/MCU/ARM_GCC_Support/ewl/lib/armv6-m\libhosted.a(semihosted_file_io.o)

.debug_macinfo  0x00000000   0xa72ab9
 .debug_macinfo
                0x00000000    0x3e002 ./Generated_Code/Vectors.o
 .debug_macinfo
                0x0003e002    0x414b7 ./Generated_Code/UART.o
 .debug_macinfo
                0x0007f4b9    0x375b0 ./Generated_Code/TestPin_MagCal_Time.o
 .debug_macinfo
                0x000b6a69    0x37580 ./Generated_Code/TestPin_KF_Time.o
 .debug_macinfo
                0x000edfe9    0x387ac ./Generated_Code/TU1.o
 .debug_macinfo
                0x00126795    0x37d73 ./Generated_Code/SystemTimer1.o
 .debug_macinfo
                0x0015e508    0x3883e ./Generated_Code/PWM1.o
 .debug_macinfo
                0x00196d46    0x3db81 ./Generated_Code/PE_LDD.o
 .debug_macinfo
                0x001d48c7    0x3e06d ./Generated_Code/MQX1.o
 .debug_macinfo
                0x00212934    0x37545 ./Generated_Code/LED_RED.o
 .debug_macinfo
                0x00249e79    0x3755f ./Generated_Code/LED_GREEN.o
 .debug_macinfo
                0x002813d8    0x4458e ./Generated_Code/I2C.o
 .debug_macinfo
                0x002c5966    0x3dc3c ./Generated_Code/FTM.o
 .debug_macinfo
                0x003035a2    0x3dfc4 ./Generated_Code/Cpu.o
 .debug_macinfo
                0x00341566    0x37559 ./Generated_Code/BitIoLdd6.o
 .debug_macinfo
                0x00378abf    0x37559 ./Generated_Code/BitIoLdd5.o
 .debug_macinfo
                0x003b0018    0x37559 ./Generated_Code/BitIoLdd4.o
 .debug_macinfo
                0x003e7571    0x37559 ./Generated_Code/BitIoLdd3.o
 .debug_macinfo
                0x0041eaca    0x37559 ./Generated_Code/BitIoLdd2.o
 .debug_macinfo
                0x00456023    0x3757e ./Generated_Code/BitIoLdd1.o
 .debug_macinfo
                0x0048d5a1    0x3dfe9 ./MQXLITE/config/task_template_list.o
 .debug_macinfo
                0x004cb58a    0x3e6cd ./MQXLITE/kernel/time_ticks.o
 .debug_macinfo
                0x00509c57    0x3e772 ./MQXLITE/kernel/task.o
 .debug_macinfo
                0x005483c9    0x3e707 ./MQXLITE/kernel/mqxlite.o
 .debug_macinfo
                0x00586ad0    0x3e707 ./MQXLITE/kernel/mqx_utils.o
 .debug_macinfo
                0x005c51d7    0x3e67b ./MQXLITE/kernel/lwsem.o
 .debug_macinfo
                0x00603852    0x3e6c3 ./MQXLITE/kernel/lwevent.o
 .debug_macinfo
                0x00641f15    0x3e67b ./MQXLITE/kernel/int.o
 .debug_macinfo
                0x00680590    0x3e67b ./MQXLITE/kernel/idletask.o
 .debug_macinfo
                0x006bec0b    0x3e67b ./MQXLITE/psp/cortex_m/stack_de.o
 .debug_macinfo
                0x006fd286    0x3e67b ./MQXLITE/psp/cortex_m/stack_bu.o
 .debug_macinfo
                0x0073b901    0x3e67b ./MQXLITE/psp/cortex_m/sc_irdyq.o
 .debug_macinfo
                0x00779f7c    0x3e67b ./MQXLITE/psp/cortex_m/psp_tinm.o
 .debug_macinfo
                0x007b85f7    0x3e67b ./MQXLITE/psp/cortex_m/psp_tiad.o
 .debug_macinfo
                0x007f6c72    0x3e67b ./MQXLITE/psp/cortex_m/psp_iinit.o
 .debug_macinfo
                0x008352ed    0x3e67b ./MQXLITE/psp/cortex_m/mem_zero.o
 .debug_macinfo
                0x00873968    0x3e67b ./MQXLITE/psp/cortex_m/int_vtab.o
 .debug_macinfo
                0x008b1fe3    0x3e67b ./MQXLITE/psp/cortex_m/int_inst.o
 .debug_macinfo
                0x008f065e     0x3e88 ./Project_Settings/Startup_Code/__arm_start.o
 .debug_macinfo
                0x008f44e6     0x3471 ./Project_Settings/Startup_Code/__arm_end.o
 .debug_macinfo
                0x008f7957    0x408aa ./Sources/user_tasks.o
 .debug_macinfo
                0x00938201    0x409df ./Sources/tasks_func.o
 .debug_macinfo
                0x00978be0    0x3ec30 ./Sources/mqx_tasks.o
 .debug_macinfo
                0x009b7810    0x3dfc6 ./Sources/main.o
 .debug_macinfo
                0x009f57d6    0x3ece7 ./Sources/FSL_utils.o
 .debug_macinfo
                0x00a344bd    0x3e5fc ./Sources/Events.o

.debug_line     0x00000000    0x171c0
 .debug_line    0x00000000      0x76d ./Generated_Code/Vectors.o
 .debug_line    0x0000076d      0x71a ./Generated_Code/UART.o
 .debug_line    0x00000e87      0x4dd ./Generated_Code/TestPin_MagCal_Time.o
 .debug_line    0x00001364      0x4d5 ./Generated_Code/TestPin_KF_Time.o
 .debug_line    0x00001839      0x517 ./Generated_Code/TU1.o
 .debug_line    0x00001d50      0x558 ./Generated_Code/SystemTimer1.o
 .debug_line    0x000022a8      0x4c7 ./Generated_Code/PWM1.o
 .debug_line    0x0000276f      0x61c ./Generated_Code/PE_LDD.o
 .debug_line    0x00002d8b      0x68b ./Generated_Code/MQX1.o
 .debug_line    0x00003416      0x4d7 ./Generated_Code/LED_RED.o
 .debug_line    0x000038ed      0x4db ./Generated_Code/LED_GREEN.o
 .debug_line    0x00003dc8      0x825 ./Generated_Code/I2C.o
 .debug_line    0x000045ed      0x653 ./Generated_Code/FTM.o
 .debug_line    0x00004c40      0x80a ./Generated_Code/Cpu.o
 .debug_line    0x0000544a      0x4e0 ./Generated_Code/BitIoLdd6.o
 .debug_line    0x0000592a      0x4e0 ./Generated_Code/BitIoLdd5.o
 .debug_line    0x00005e0a      0x4e0 ./Generated_Code/BitIoLdd4.o
 .debug_line    0x000062ea      0x4e0 ./Generated_Code/BitIoLdd3.o
 .debug_line    0x000067ca      0x4e0 ./Generated_Code/BitIoLdd2.o
 .debug_line    0x00006caa      0x4f6 ./Generated_Code/BitIoLdd1.o
 .debug_line    0x000071a0      0x61b ./MQXLITE/config/task_template_list.o
 .debug_line    0x000077bb      0x988 ./MQXLITE/kernel/time_ticks.o
 .debug_line    0x00008143     0x11a7 ./MQXLITE/kernel/task.o
 .debug_line    0x000092ea      0x72d ./MQXLITE/kernel/mqxlite.o
 .debug_line    0x00009a17      0x78c ./MQXLITE/kernel/mqx_utils.o
 .debug_line    0x0000a1a3      0x953 ./MQXLITE/kernel/lwsem.o
 .debug_line    0x0000aaf6      0x8f0 ./MQXLITE/kernel/lwevent.o
 .debug_line    0x0000b3e6      0x8e4 ./MQXLITE/kernel/int.o
 .debug_line    0x0000bcca      0x664 ./MQXLITE/kernel/idletask.o
 .debug_line    0x0000c32e      0x18b ./MQXLITE/psp/cortex_m/core/M0/dispatch.o
 .debug_line    0x0000c4b9       0x68 ./MQXLITE/psp/cortex_m/core/M0/boot.o
 .debug_line    0x0000c521      0x665 ./MQXLITE/psp/cortex_m/stack_de.o
 .debug_line    0x0000cb86      0x68a ./MQXLITE/psp/cortex_m/stack_bu.o
 .debug_line    0x0000d210      0x714 ./MQXLITE/psp/cortex_m/sc_irdyq.o
 .debug_line    0x0000d924      0x66f ./MQXLITE/psp/cortex_m/psp_tinm.o
 .debug_line    0x0000df93      0x672 ./MQXLITE/psp/cortex_m/psp_tiad.o
 .debug_line    0x0000e605      0x669 ./MQXLITE/psp/cortex_m/psp_iinit.o
 .debug_line    0x0000ec6e      0x6f6 ./MQXLITE/psp/cortex_m/mem_zero.o
 .debug_line    0x0000f364      0x67f ./MQXLITE/psp/cortex_m/int_vtab.o
 .debug_line    0x0000f9e3      0x66e ./MQXLITE/psp/cortex_m/int_inst.o
 .debug_line    0x00010051      0x291 ./Project_Settings/Startup_Code/__arm_start.o
 .debug_line    0x000102e2      0x279 ./Project_Settings/Startup_Code/__arm_end.o
 .debug_line    0x0001055b      0x876 ./Sources/user_tasks.o
 .debug_line    0x00010dd1      0xa4c ./Sources/tasks_func.o
 .debug_line    0x0001181d      0x7a7 ./Sources/mqx_tasks.o
 .debug_line    0x00011fc4      0x5de ./Sources/main.o
 .debug_line    0x000125a2     0x13f3 ./Sources/FSL_utils.o
 .debug_line    0x00013995      0x754 ./Sources/Events.o
 .debug_line    0x000140e9       0x93 C:/Appz/Freescale/CW MCU v10.6/MCU/ARM_GCC_Support/ewl/lib/armv6-m\libc.a(sprintf.o)
 .debug_line    0x0001417c       0xd4 C:/Appz/Freescale/CW MCU v10.6/MCU/ARM_GCC_Support/ewl/lib/armv6-m\libc.a(vsnprintf.o)
 .debug_line    0x00014250       0x8d C:/Appz/Freescale/CW MCU v10.6/MCU/ARM_GCC_Support/ewl/lib/armv6-m\libc.a(exit.o)
 .debug_line    0x000142dd       0x8b C:/Appz/Freescale/CW MCU v10.6/MCU/ARM_GCC_Support/ewl/lib/armv6-m\libc.a(memcpy.o)
 .debug_line    0x00014368       0x90 C:/Appz/Freescale/CW MCU v10.6/MCU/ARM_GCC_Support/ewl/lib/armv6-m\libc.a(memset.o)
 .debug_line    0x000143f8      0x3bf C:/Appz/Freescale/CW MCU v10.6/MCU/ARM_GCC_Support/ewl/lib/armv6-m\libc.a(printformat_fp.o)
 .debug_line    0x000147b7      0x2e3 C:/Appz/Freescale/CW MCU v10.6/MCU/ARM_GCC_Support/ewl/lib/armv6-m\libc.a(scanformat_fp.o)
 .debug_line    0x00014a9a      0x1be C:/Appz/Freescale/CW MCU v10.6/MCU/ARM_GCC_Support/ewl/lib/armv6-m\libc.a(ctype_aeabi.o)
 .debug_line    0x00014c58      0x30a C:/Appz/Freescale/CW MCU v10.6/MCU/ARM_GCC_Support/ewl/lib/armv6-m\libc.a(__strtold.o)
 .debug_line    0x00014f62      0x11e C:/Appz/Freescale/CW MCU v10.6/MCU/ARM_GCC_Support/ewl/lib/armv6-m\libc.a(__strtoul.o)
 .debug_line    0x00015080       0xf6 C:/Appz/Freescale/CW MCU v10.6/MCU/ARM_GCC_Support/ewl/lib/armv6-m\libc.a(__filll_mem.o)
 .debug_line    0x00015176       0x9f C:/Appz/Freescale/CW MCU v10.6/MCU/ARM_GCC_Support/ewl/lib/armv6-m\libc.a(memchr.o)
 .debug_line    0x00015215       0x7d C:/Appz/Freescale/CW MCU v10.6/MCU/ARM_GCC_Support/ewl/lib/armv6-m\libc.a(strchr.o)
 .debug_line    0x00015292       0x7d C:/Appz/Freescale/CW MCU v10.6/MCU/ARM_GCC_Support/ewl/lib/armv6-m\libc.a(strcpy.o)
 .debug_line    0x0001530f       0x85 C:/Appz/Freescale/CW MCU v10.6/MCU/ARM_GCC_Support/ewl/lib/armv6-m\libc.a(strlen.o)
 .debug_line    0x00015394       0x4d C:/Appz/Freescale/CW MCU v10.6/MCU/ARM_GCC_Support/ewl/lib/armv6-m\libc.a(errno.o)
 .debug_line    0x000153e1      0x1d9 C:/Appz/Freescale/CW MCU v10.6/MCU/ARM_GCC_Support/ewl/lib/armv6-m\libm.a(ansi_fp.o)
 .debug_line    0x000155ba       0x60 C:/Appz/Freescale/CW MCU v10.6/MCU/ARM_GCC_Support/ewl/lib/armv6-m\libm.a(float.o)
 .debug_line    0x0001561a      0x173 C:/Appz/Freescale/CW MCU v10.6/MCU/ARM_GCC_Support/ewl/lib/armv6-m\libm.a(math_api.o)
 .debug_line    0x0001578d       0xb9 C:/Appz/Freescale/CW MCU v10.6/MCU/ARM_GCC_Support/ewl/lib/armv6-m\libm.a(s_frexp.o)
 .debug_line    0x00015846       0xcf C:/Appz/Freescale/CW MCU v10.6/MCU/ARM_GCC_Support/ewl/lib/armv6-m\libm.a(s_sinf.o)
 .debug_line    0x00015915       0x75 C:/Appz/Freescale/CW MCU v10.6/MCU/ARM_GCC_Support/ewl/lib/armv6-m\libm.a(w_acosf.o)
 .debug_line    0x0001598a       0x73 C:/Appz/Freescale/CW MCU v10.6/MCU/ARM_GCC_Support/ewl/lib/armv6-m\libm.a(w_pow.o)
 .debug_line    0x000159fd       0x74 C:/Appz/Freescale/CW MCU v10.6/MCU/ARM_GCC_Support/ewl/lib/armv6-m\libm.a(w_powf.o)
 .debug_line    0x00015a71       0x75 C:/Appz/Freescale/CW MCU v10.6/MCU/ARM_GCC_Support/ewl/lib/armv6-m\libm.a(w_sqrtf.o)
 .debug_line    0x00015ae6       0xf9 C:/Appz/Freescale/CW MCU v10.6/MCU/ARM_GCC_Support/ewl/lib/armv6-m\libm.a(e_acosf.o)
 .debug_line    0x00015bdf      0x1f9 C:/Appz/Freescale/CW MCU v10.6/MCU/ARM_GCC_Support/ewl/lib/armv6-m\libm.a(e_pow.o)
 .debug_line    0x00015dd8      0x1b5 C:/Appz/Freescale/CW MCU v10.6/MCU/ARM_GCC_Support/ewl/lib/armv6-m\libm.a(e_powf.o)
 .debug_line    0x00015f8d      0x11b C:/Appz/Freescale/CW MCU v10.6/MCU/ARM_GCC_Support/ewl/lib/armv6-m\libm.a(e_rem_pio2f.o)
 .debug_line    0x000160a8       0xda C:/Appz/Freescale/CW MCU v10.6/MCU/ARM_GCC_Support/ewl/lib/armv6-m\libm.a(e_sqrtf.o)
 .debug_line    0x00016182       0xbd C:/Appz/Freescale/CW MCU v10.6/MCU/ARM_GCC_Support/ewl/lib/armv6-m\libm.a(k_cosf.o)
 .debug_line    0x0001623f      0x2e4 C:/Appz/Freescale/CW MCU v10.6/MCU/ARM_GCC_Support/ewl/lib/armv6-m\libm.a(k_rem_pio2f.o)
 .debug_line    0x00016523       0xaf C:/Appz/Freescale/CW MCU v10.6/MCU/ARM_GCC_Support/ewl/lib/armv6-m\libm.a(k_sinf.o)
 .debug_line    0x000165d2       0xbb C:/Appz/Freescale/CW MCU v10.6/MCU/ARM_GCC_Support/ewl/lib/armv6-m\libm.a(s_floorf.o)
 .debug_line    0x0001668d       0xc4 C:/Appz/Freescale/CW MCU v10.6/MCU/ARM_GCC_Support/ewl/lib/armv6-m\libm.a(s_scalbnf.o)
 .debug_line    0x00016751       0x77 C:/Appz/Freescale/CW MCU v10.6/MCU/ARM_GCC_Support/ewl/lib/armv6-m\libm.a(scalbn.o)
 .debug_line    0x000167c8       0x74 C:/Appz/Freescale/CW MCU v10.6/MCU/ARM_GCC_Support/ewl/lib/armv6-m\libm.a(w_sqrt.o)
 .debug_line    0x0001683c      0x121 C:/Appz/Freescale/CW MCU v10.6/MCU/ARM_GCC_Support/ewl/lib/armv6-m\libm.a(e_sqrt.o)
 .debug_line    0x0001695d       0xc6 C:/Appz/Freescale/CW MCU v10.6/MCU/ARM_GCC_Support/ewl/lib/armv6-m\libm.a(s_ldexp.o)
 .debug_line    0x00016a23       0x6c C:/Appz/Freescale/CW MCU v10.6/MCU/ARM_GCC_Support/ewl/lib/armv6-m\librt.a(gcc_ctor_dtor.o)
 .debug_line    0x00016a8f       0xbd C:/Appz/Freescale/CW MCU v10.6/MCU/ARM_GCC_Support/ewl/lib/armv6-m\librt.a(ROMCopy.o)
 .debug_line    0x00016b4c      0x117 C:/Appz/Freescale/CW MCU v10.6/MCU/ARM_GCC_Support/ewl/lib/armv6-m\librt.a(__arm_eabi_init.o)
 .debug_line    0x00016c63       0x98 C:/Appz/Freescale/CW MCU v10.6/MCU/ARM_GCC_Support/ewl/lib/armv6-m\librt.a(setjmp.o)
 .debug_line    0x00016cfb      0x148 C:/Appz/Freescale/CW MCU v10.6/MCU/ARM_GCC_Support/ewl/lib/armv6-m\libhosted.a(semihosted_console_io.o)
 .debug_line    0x00016e43      0x37d C:/Appz/Freescale/CW MCU v10.6/MCU/ARM_GCC_Support/ewl/lib/armv6-m\libhosted.a(semihosted_file_io.o)

.debug_str      0x00000000     0x5a8a
 .debug_str     0x00000000      0x372 ./Generated_Code/Vectors.o
                                0x3ab (size before relaxing)
 .debug_str     0x00000372      0x370 ./Generated_Code/UART.o
                                0x6de (size before relaxing)
 .debug_str     0x000006e2      0x141 ./Generated_Code/TestPin_MagCal_Time.o
                                0x337 (size before relaxing)
 .debug_str     0x00000823       0xd0 ./Generated_Code/TestPin_KF_Time.o
                                0x317 (size before relaxing)
 .debug_str     0x000008f3      0x188 ./Generated_Code/TU1.o
                                0x460 (size before relaxing)
 .debug_str     0x00000a7b      0x1dd ./Generated_Code/SystemTimer1.o
                                0x665 (size before relaxing)
 .debug_str     0x00000c58       0xae ./Generated_Code/PWM1.o
                                0x279 (size before relaxing)
 .debug_str     0x00000d06      0x172 ./Generated_Code/PE_LDD.o
                                0x51e (size before relaxing)
 .debug_str     0x00000e78      0xa92 ./Generated_Code/MQX1.o
                                0xede (size before relaxing)
 .debug_str     0x0000190a       0x9f ./Generated_Code/LED_RED.o
                                0x2e6 (size before relaxing)
 .debug_str     0x000019a9       0xb1 ./Generated_Code/LED_GREEN.o
                                0x2f8 (size before relaxing)
 .debug_str     0x00001a5a      0x268 ./Generated_Code/I2C.o
                                0x866 (size before relaxing)
 .debug_str     0x00001cc2       0x91 ./Generated_Code/FTM.o
                                0x60e (size before relaxing)
 .debug_str     0x00001d53      0x167 ./Generated_Code/Cpu.o
                                0x861 (size before relaxing)
 .debug_str     0x00001eba       0xb1 ./Generated_Code/BitIoLdd6.o
                                0x2f8 (size before relaxing)
 .debug_str     0x00001f6b       0xb1 ./Generated_Code/BitIoLdd5.o
                                0x2f8 (size before relaxing)
 .debug_str     0x0000201c       0xb1 ./Generated_Code/BitIoLdd4.o
                                0x2f8 (size before relaxing)
 .debug_str     0x000020cd       0xb1 ./Generated_Code/BitIoLdd3.o
                                0x2f8 (size before relaxing)
 .debug_str     0x0000217e       0xb1 ./Generated_Code/BitIoLdd2.o
                                0x2f8 (size before relaxing)
 .debug_str     0x0000222f       0xc2 ./Generated_Code/BitIoLdd1.o
                                0x309 (size before relaxing)
 .debug_str     0x000022f1       0x27 ./MQXLITE/config/task_template_list.o
                                0x44a (size before relaxing)
 .debug_str     0x00002318      0x2e6 ./MQXLITE/kernel/time_ticks.o
                                0xd82 (size before relaxing)
 .debug_str     0x000025fe      0x762 ./MQXLITE/kernel/task.o
                               0x150a (size before relaxing)
 .debug_str     0x00002d60      0x17d ./MQXLITE/kernel/mqxlite.o
                                0xef3 (size before relaxing)
 .debug_str     0x00002edd      0x139 ./MQXLITE/kernel/mqx_utils.o
                                0xbff (size before relaxing)
 .debug_str     0x00003016      0x145 ./MQXLITE/kernel/lwsem.o
                                0xc8c (size before relaxing)
 .debug_str     0x0000315b      0x1cd ./MQXLITE/kernel/lwevent.o
                                0xd31 (size before relaxing)
 .debug_str     0x00003328      0x1c0 ./MQXLITE/kernel/int.o
                                0xce4 (size before relaxing)
 .debug_str     0x000034e8       0x2c ./MQXLITE/kernel/idletask.o
                                0xaaa (size before relaxing)
 .debug_str     0x00003514       0x3c ./MQXLITE/psp/cortex_m/stack_de.o
                                0x434 (size before relaxing)
 .debug_str     0x00003550       0x4a ./MQXLITE/psp/cortex_m/stack_bu.o
                                0x587 (size before relaxing)
 .debug_str     0x0000359a       0x6a ./MQXLITE/psp/cortex_m/sc_irdyq.o
                                0xbc6 (size before relaxing)
 .debug_str     0x00003604       0x38 ./MQXLITE/psp/cortex_m/psp_tinm.o
                                0xaf0 (size before relaxing)
 .debug_str     0x0000363c       0x5a ./MQXLITE/psp/cortex_m/psp_tiad.o
                                0xadd (size before relaxing)
 .debug_str     0x00003696       0x32 ./MQXLITE/psp/cortex_m/psp_iinit.o
                                0x198 (size before relaxing)
 .debug_str     0x000036c8       0x83 ./MQXLITE/psp/cortex_m/mem_zero.o
                                0x1be (size before relaxing)
 .debug_str     0x0000374b      0x14a ./MQXLITE/psp/cortex_m/int_vtab.o
                                0xbf1 (size before relaxing)
 .debug_str     0x00003895       0x34 ./MQXLITE/psp/cortex_m/int_inst.o
                                0xaa8 (size before relaxing)
 .debug_str     0x000038c9       0x85 ./Project_Settings/Startup_Code/__arm_start.o
                                0x19a (size before relaxing)
 .debug_str     0x0000394e       0x41 ./Project_Settings/Startup_Code/__arm_end.o
                                 0xd1 (size before relaxing)
 .debug_str     0x0000398f      0x252 ./Sources/user_tasks.o
                                0x618 (size before relaxing)
 .debug_str     0x00003be1      0x50f ./Sources/tasks_func.o
                                0xbf4 (size before relaxing)
 .debug_str     0x000040f0       0x58 ./Sources/mqx_tasks.o
                                0x742 (size before relaxing)
 .debug_str     0x00004148       0x17 ./Sources/main.o
                                0x12c (size before relaxing)
 .debug_str     0x0000415f      0x1d4 ./Sources/FSL_utils.o
                                0xe08 (size before relaxing)
 .debug_str     0x00004333       0xaf ./Sources/Events.o
                                0x520 (size before relaxing)
 .debug_str     0x000043e2       0x4a C:/Appz/Freescale/CW MCU v10.6/MCU/ARM_GCC_Support/ewl/lib/armv6-m\libc.a(sprintf.o)
                                0x163 (size before relaxing)
 .debug_str     0x0000442c       0x83 C:/Appz/Freescale/CW MCU v10.6/MCU/ARM_GCC_Support/ewl/lib/armv6-m\libc.a(vsnprintf.o)
                                0x1cc (size before relaxing)
 .debug_str     0x000044af       0x2e C:/Appz/Freescale/CW MCU v10.6/MCU/ARM_GCC_Support/ewl/lib/armv6-m\libc.a(exit.o)
                                0x157 (size before relaxing)
 .debug_str     0x000044dd       0x1c C:/Appz/Freescale/CW MCU v10.6/MCU/ARM_GCC_Support/ewl/lib/armv6-m\libc.a(memcpy.o)
                                0x138 (size before relaxing)
 .debug_str     0x000044f9       0x1c C:/Appz/Freescale/CW MCU v10.6/MCU/ARM_GCC_Support/ewl/lib/armv6-m\libc.a(memset.o)
                                0x140 (size before relaxing)
 .debug_str     0x00004515      0x2ab C:/Appz/Freescale/CW MCU v10.6/MCU/ARM_GCC_Support/ewl/lib/armv6-m\libc.a(printformat_fp.o)
                                0x463 (size before relaxing)
 .debug_str     0x000047c0      0x19f C:/Appz/Freescale/CW MCU v10.6/MCU/ARM_GCC_Support/ewl/lib/armv6-m\libc.a(scanformat_fp.o)
                                0x45f (size before relaxing)
 .debug_str     0x0000495f       0x9d C:/Appz/Freescale/CW MCU v10.6/MCU/ARM_GCC_Support/ewl/lib/armv6-m\libc.a(ctype_aeabi.o)
                                0x1bc (size before relaxing)
 .debug_str     0x000049fc      0x286 C:/Appz/Freescale/CW MCU v10.6/MCU/ARM_GCC_Support/ewl/lib/armv6-m\libc.a(__strtold.o)
                                0x533 (size before relaxing)
 .debug_str     0x00004c82       0x2b C:/Appz/Freescale/CW MCU v10.6/MCU/ARM_GCC_Support/ewl/lib/armv6-m\libc.a(__strtoul.o)
                                0x1fb (size before relaxing)
 .debug_str     0x00004cad       0x25 C:/Appz/Freescale/CW MCU v10.6/MCU/ARM_GCC_Support/ewl/lib/armv6-m\libc.a(__filll_mem.o)
                                0x152 (size before relaxing)
 .debug_str     0x00004cd2       0x1c C:/Appz/Freescale/CW MCU v10.6/MCU/ARM_GCC_Support/ewl/lib/armv6-m\libc.a(memchr.o)
                                0x148 (size before relaxing)
 .debug_str     0x00004cee       0x1c C:/Appz/Freescale/CW MCU v10.6/MCU/ARM_GCC_Support/ewl/lib/armv6-m\libc.a(strchr.o)
                                0x137 (size before relaxing)
 .debug_str     0x00004d0a       0x1c C:/Appz/Freescale/CW MCU v10.6/MCU/ARM_GCC_Support/ewl/lib/armv6-m\libc.a(strcpy.o)
                                0x142 (size before relaxing)
 .debug_str     0x00004d26       0x1c C:/Appz/Freescale/CW MCU v10.6/MCU/ARM_GCC_Support/ewl/lib/armv6-m\libc.a(strlen.o)
                                0x140 (size before relaxing)
 .debug_str     0x00004d42       0x12 C:/Appz/Freescale/CW MCU v10.6/MCU/ARM_GCC_Support/ewl/lib/armv6-m\libc.a(errno.o)
                                0x12c (size before relaxing)
 .debug_str     0x00004d54       0x7f C:/Appz/Freescale/CW MCU v10.6/MCU/ARM_GCC_Support/ewl/lib/armv6-m\libm.a(ansi_fp.o)
                                0x219 (size before relaxing)
 .debug_str     0x00004dd3       0xd0 C:/Appz/Freescale/CW MCU v10.6/MCU/ARM_GCC_Support/ewl/lib/armv6-m\libm.a(float.o)
                                0x225 (size before relaxing)
 .debug_str     0x00004ea3       0xe8 C:/Appz/Freescale/CW MCU v10.6/MCU/ARM_GCC_Support/ewl/lib/armv6-m\libm.a(math_api.o)
                                0x228 (size before relaxing)
 .debug_str     0x00004f8b       0x24 C:/Appz/Freescale/CW MCU v10.6/MCU/ARM_GCC_Support/ewl/lib/armv6-m\libm.a(s_frexp.o)
                                0x15d (size before relaxing)
 .debug_str     0x00004faf       0x26 C:/Appz/Freescale/CW MCU v10.6/MCU/ARM_GCC_Support/ewl/lib/armv6-m\libm.a(s_sinf.o)
                                0x159 (size before relaxing)
 .debug_str     0x00004fd5       0x13 C:/Appz/Freescale/CW MCU v10.6/MCU/ARM_GCC_Support/ewl/lib/armv6-m\libm.a(w_acosf.o)
                                0x12d (size before relaxing)
 .debug_str     0x00004fe8       0x11 C:/Appz/Freescale/CW MCU v10.6/MCU/ARM_GCC_Support/ewl/lib/armv6-m\libm.a(w_pow.o)
                                0x125 (size before relaxing)
 .debug_str     0x00004ff9       0x12 C:/Appz/Freescale/CW MCU v10.6/MCU/ARM_GCC_Support/ewl/lib/armv6-m\libm.a(w_powf.o)
                                0x12b (size before relaxing)
 .debug_str     0x0000500b       0x13 C:/Appz/Freescale/CW MCU v10.6/MCU/ARM_GCC_Support/ewl/lib/armv6-m\libm.a(w_sqrtf.o)
                                0x12d (size before relaxing)
 .debug_str     0x0000501e       0x33 C:/Appz/Freescale/CW MCU v10.6/MCU/ARM_GCC_Support/ewl/lib/armv6-m\libm.a(e_acosf.o)
                                0x18b (size before relaxing)
 .debug_str     0x00005051       0x67 C:/Appz/Freescale/CW MCU v10.6/MCU/ARM_GCC_Support/ewl/lib/armv6-m\libm.a(e_pow.o)
                                0x1cd (size before relaxing)
 .debug_str     0x000050b8       0x2f C:/Appz/Freescale/CW MCU v10.6/MCU/ARM_GCC_Support/ewl/lib/armv6-m\libm.a(e_powf.o)
                                0x1cb (size before relaxing)
 .debug_str     0x000050e7       0x84 C:/Appz/Freescale/CW MCU v10.6/MCU/ARM_GCC_Support/ewl/lib/armv6-m\libm.a(e_rem_pio2f.o)
                                0x1d0 (size before relaxing)
 .debug_str     0x0000516b       0x23 C:/Appz/Freescale/CW MCU v10.6/MCU/ARM_GCC_Support/ewl/lib/armv6-m\libm.a(e_sqrtf.o)
                                0x179 (size before relaxing)
 .debug_str     0x0000518e       0x20 C:/Appz/Freescale/CW MCU v10.6/MCU/ARM_GCC_Support/ewl/lib/armv6-m\libm.a(k_cosf.o)
                                0x159 (size before relaxing)
 .debug_str     0x000051ae       0x57 C:/Appz/Freescale/CW MCU v10.6/MCU/ARM_GCC_Support/ewl/lib/armv6-m\libm.a(k_rem_pio2f.o)
                                0x19b (size before relaxing)
 .debug_str     0x00005205       0x20 C:/Appz/Freescale/CW MCU v10.6/MCU/ARM_GCC_Support/ewl/lib/armv6-m\libm.a(k_sinf.o)
                                0x15e (size before relaxing)
 .debug_str     0x00005225       0x1b C:/Appz/Freescale/CW MCU v10.6/MCU/ARM_GCC_Support/ewl/lib/armv6-m\libm.a(s_floorf.o)
                                0x15c (size before relaxing)
 .debug_str     0x00005240       0x2a C:/Appz/Freescale/CW MCU v10.6/MCU/ARM_GCC_Support/ewl/lib/armv6-m\libm.a(s_scalbnf.o)
                                0x17b (size before relaxing)
 .debug_str     0x0000526a       0x1e C:/Appz/Freescale/CW MCU v10.6/MCU/ARM_GCC_Support/ewl/lib/armv6-m\libm.a(scalbn.o)
                                0x13f (size before relaxing)
 .debug_str     0x00005288       0x12 C:/Appz/Freescale/CW MCU v10.6/MCU/ARM_GCC_Support/ewl/lib/armv6-m\libm.a(w_sqrt.o)
                                0x12b (size before relaxing)
 .debug_str     0x0000529a       0x21 C:/Appz/Freescale/CW MCU v10.6/MCU/ARM_GCC_Support/ewl/lib/armv6-m\libm.a(e_sqrt.o)
                                0x17e (size before relaxing)
 .debug_str     0x000052bb       0x20 C:/Appz/Freescale/CW MCU v10.6/MCU/ARM_GCC_Support/ewl/lib/armv6-m\libm.a(s_ldexp.o)
                                0x164 (size before relaxing)
 .debug_str     0x000052db      0x126 C:/Appz/Freescale/CW MCU v10.6/MCU/ARM_GCC_Support/ewl/lib/armv6-m\librt.a(gcc_ctor_dtor.o)
                                0x181 (size before relaxing)
 .debug_str     0x00005401       0x8f C:/Appz/Freescale/CW MCU v10.6/MCU/ARM_GCC_Support/ewl/lib/armv6-m\librt.a(ROMCopy.o)
                                0x13c (size before relaxing)
 .debug_str     0x00005490       0xe9 C:/Appz/Freescale/CW MCU v10.6/MCU/ARM_GCC_Support/ewl/lib/armv6-m\librt.a(__arm_eabi_init.o)
                                0x1b5 (size before relaxing)
 .debug_str     0x00005579       0x22 C:/Appz/Freescale/CW MCU v10.6/MCU/ARM_GCC_Support/ewl/lib/armv6-m\librt.a(setjmp.o)
                                 0xaf (size before relaxing)
 .debug_str     0x0000559b       0xdf C:/Appz/Freescale/CW MCU v10.6/MCU/ARM_GCC_Support/ewl/lib/armv6-m\libhosted.a(semihosted_console_io.o)
                                0x1ac (size before relaxing)
 .debug_str     0x0000567a      0x410 C:/Appz/Freescale/CW MCU v10.6/MCU/ARM_GCC_Support/ewl/lib/armv6-m\libhosted.a(semihosted_file_io.o)
                                0x5f2 (size before relaxing)

.comment        0x00000000       0x79
 .comment       0x00000000       0x79 ./Generated_Code/Vectors.o
                                 0x7a (size before relaxing)
 .comment       0x00000000       0x7a ./Generated_Code/UART.o
 .comment       0x00000000       0x7a ./Generated_Code/TestPin_MagCal_Time.o
 .comment       0x00000000       0x7a ./Generated_Code/TestPin_KF_Time.o
 .comment       0x00000000       0x7a ./Generated_Code/TU1.o
 .comment       0x00000000       0x7a ./Generated_Code/SystemTimer1.o
 .comment       0x00000000       0x7a ./Generated_Code/PWM1.o
 .comment       0x00000000       0x7a ./Generated_Code/PE_LDD.o
 .comment       0x00000000       0x7a ./Generated_Code/MQX1.o
 .comment       0x00000000       0x7a ./Generated_Code/LED_RED.o
 .comment       0x00000000       0x7a ./Generated_Code/LED_GREEN.o
 .comment       0x00000000       0x7a ./Generated_Code/I2C.o
 .comment       0x00000000       0x7a ./Generated_Code/FTM.o
 .comment       0x00000000       0x7a ./Generated_Code/Cpu.o
 .comment       0x00000000       0x7a ./Generated_Code/BitIoLdd6.o
 .comment       0x00000000       0x7a ./Generated_Code/BitIoLdd5.o
 .comment       0x00000000       0x7a ./Generated_Code/BitIoLdd4.o
 .comment       0x00000000       0x7a ./Generated_Code/BitIoLdd3.o
 .comment       0x00000000       0x7a ./Generated_Code/BitIoLdd2.o
 .comment       0x00000000       0x7a ./Generated_Code/BitIoLdd1.o
 .comment       0x00000000       0x7a ./MQXLITE/config/task_template_list.o
 .comment       0x00000000       0x7a ./MQXLITE/kernel/time_ticks.o
 .comment       0x00000000       0x7a ./MQXLITE/kernel/task.o
 .comment       0x00000000       0x7a ./MQXLITE/kernel/mqxlite.o
 .comment       0x00000000       0x7a ./MQXLITE/kernel/mqx_utils.o
 .comment       0x00000000       0x7a ./MQXLITE/kernel/lwsem.o
 .comment       0x00000000       0x7a ./MQXLITE/kernel/lwevent.o
 .comment       0x00000000       0x7a ./MQXLITE/kernel/int.o
 .comment       0x00000000       0x7a ./MQXLITE/kernel/idletask.o
 .comment       0x00000000       0x7a ./MQXLITE/psp/cortex_m/stack_de.o
 .comment       0x00000000       0x7a ./MQXLITE/psp/cortex_m/stack_bu.o
 .comment       0x00000000       0x7a ./MQXLITE/psp/cortex_m/sc_irdyq.o
 .comment       0x00000000       0x7a ./MQXLITE/psp/cortex_m/psp_tinm.o
 .comment       0x00000000       0x7a ./MQXLITE/psp/cortex_m/psp_tiad.o
 .comment       0x00000000       0x7a ./MQXLITE/psp/cortex_m/psp_iinit.o
 .comment       0x00000000       0x7a ./MQXLITE/psp/cortex_m/mem_zero.o
 .comment       0x00000000       0x7a ./MQXLITE/psp/cortex_m/int_vtab.o
 .comment       0x00000000       0x7a ./MQXLITE/psp/cortex_m/int_inst.o
 .comment       0x00000000       0x7a ./Project_Settings/Startup_Code/__arm_start.o
 .comment       0x00000000       0x7a ./Project_Settings/Startup_Code/__arm_end.o
 .comment       0x00000000       0x7a ./Sources/user_tasks.o
 .comment       0x00000000       0x7a ./Sources/tasks_func.o
 .comment       0x00000000       0x7a ./Sources/mqx_tasks.o
 .comment       0x00000000       0x7a ./Sources/main.o
 .comment       0x00000000       0x7a ./Sources/FSL_utils.o
 .comment       0x00000000       0x7a ./Sources/Events.o
 .comment       0x00000000       0x7a D:/xuser00/Ansoft/XSFK_KL25Z/XSFK_KL25Z/Library\libFusion.a(baranski_kalman.o)
 .comment       0x00000000       0x7a D:/xuser00/Ansoft/XSFK_KL25Z/XSFK_KL25Z/Library\libFusion.a(matrix.o)
 .comment       0x00000000       0x7a D:/xuser00/Ansoft/XSFK_KL25Z/XSFK_KL25Z/Library\libFusion.a(magnetic.o)
 .comment       0x00000000       0x7a D:/xuser00/Ansoft/XSFK_KL25Z/XSFK_KL25Z/Library\libFusion.a(approximations.o)
 .comment       0x00000000       0x7a D:/xuser00/Ansoft/XSFK_KL25Z/XSFK_KL25Z/Library\libFusion.a(orientation.o)
 .comment       0x00000000       0x7a C:/Appz/Freescale/CW MCU v10.6/MCU/ARM_GCC_Support/ewl/lib/armv6-m\libc.a(sprintf.o)
 .comment       0x00000000       0x7a C:/Appz/Freescale/CW MCU v10.6/MCU/ARM_GCC_Support/ewl/lib/armv6-m\libc.a(vsnprintf.o)
 .comment       0x00000000       0x7a C:/Appz/Freescale/CW MCU v10.6/MCU/ARM_GCC_Support/ewl/lib/armv6-m\libc.a(exit.o)
 .comment       0x00000000       0x7a C:/Appz/Freescale/CW MCU v10.6/MCU/ARM_GCC_Support/ewl/lib/armv6-m\libc.a(memcpy.o)
 .comment       0x00000000       0x7a C:/Appz/Freescale/CW MCU v10.6/MCU/ARM_GCC_Support/ewl/lib/armv6-m\libc.a(memset.o)
 .comment       0x00000000       0x7a C:/Appz/Freescale/CW MCU v10.6/MCU/ARM_GCC_Support/ewl/lib/armv6-m\libc.a(printformat_fp.o)
 .comment       0x00000000       0x7a C:/Appz/Freescale/CW MCU v10.6/MCU/ARM_GCC_Support/ewl/lib/armv6-m\libc.a(scanformat_fp.o)
 .comment       0x00000000       0x7a C:/Appz/Freescale/CW MCU v10.6/MCU/ARM_GCC_Support/ewl/lib/armv6-m\libc.a(ctype_aeabi.o)
 .comment       0x00000000       0x7a C:/Appz/Freescale/CW MCU v10.6/MCU/ARM_GCC_Support/ewl/lib/armv6-m\libc.a(__strtold.o)
 .comment       0x00000000       0x7a C:/Appz/Freescale/CW MCU v10.6/MCU/ARM_GCC_Support/ewl/lib/armv6-m\libc.a(__strtoul.o)
 .comment       0x00000000       0x7a C:/Appz/Freescale/CW MCU v10.6/MCU/ARM_GCC_Support/ewl/lib/armv6-m\libc.a(__filll_mem.o)
 .comment       0x00000000       0x7a C:/Appz/Freescale/CW MCU v10.6/MCU/ARM_GCC_Support/ewl/lib/armv6-m\libc.a(memchr.o)
 .comment       0x00000000       0x7a C:/Appz/Freescale/CW MCU v10.6/MCU/ARM_GCC_Support/ewl/lib/armv6-m\libc.a(strchr.o)
 .comment       0x00000000       0x7a C:/Appz/Freescale/CW MCU v10.6/MCU/ARM_GCC_Support/ewl/lib/armv6-m\libc.a(strcpy.o)
 .comment       0x00000000       0x7a C:/Appz/Freescale/CW MCU v10.6/MCU/ARM_GCC_Support/ewl/lib/armv6-m\libc.a(strlen.o)
 .comment       0x00000000       0x7a C:/Appz/Freescale/CW MCU v10.6/MCU/ARM_GCC_Support/ewl/lib/armv6-m\libc.a(errno.o)
 .comment       0x00000000       0x7a C:/Appz/Freescale/CW MCU v10.6/MCU/ARM_GCC_Support/ewl/lib/armv6-m\libm.a(ansi_fp.o)
 .comment       0x00000000       0x7a C:/Appz/Freescale/CW MCU v10.6/MCU/ARM_GCC_Support/ewl/lib/armv6-m\libm.a(float.o)
 .comment       0x00000000       0x7a C:/Appz/Freescale/CW MCU v10.6/MCU/ARM_GCC_Support/ewl/lib/armv6-m\libm.a(math_api.o)
 .comment       0x00000000       0x7a C:/Appz/Freescale/CW MCU v10.6/MCU/ARM_GCC_Support/ewl/lib/armv6-m\libm.a(s_frexp.o)
 .comment       0x00000000       0x7a C:/Appz/Freescale/CW MCU v10.6/MCU/ARM_GCC_Support/ewl/lib/armv6-m\libm.a(s_sinf.o)
 .comment       0x00000000       0x7a C:/Appz/Freescale/CW MCU v10.6/MCU/ARM_GCC_Support/ewl/lib/armv6-m\libm.a(w_acosf.o)
 .comment       0x00000000       0x7a C:/Appz/Freescale/CW MCU v10.6/MCU/ARM_GCC_Support/ewl/lib/armv6-m\libm.a(w_pow.o)
 .comment       0x00000000       0x7a C:/Appz/Freescale/CW MCU v10.6/MCU/ARM_GCC_Support/ewl/lib/armv6-m\libm.a(w_powf.o)
 .comment       0x00000000       0x7a C:/Appz/Freescale/CW MCU v10.6/MCU/ARM_GCC_Support/ewl/lib/armv6-m\libm.a(w_sqrtf.o)
 .comment       0x00000000       0x7a C:/Appz/Freescale/CW MCU v10.6/MCU/ARM_GCC_Support/ewl/lib/armv6-m\libm.a(e_acosf.o)
 .comment       0x00000000       0x7a C:/Appz/Freescale/CW MCU v10.6/MCU/ARM_GCC_Support/ewl/lib/armv6-m\libm.a(e_pow.o)
 .comment       0x00000000       0x7a C:/Appz/Freescale/CW MCU v10.6/MCU/ARM_GCC_Support/ewl/lib/armv6-m\libm.a(e_powf.o)
 .comment       0x00000000       0x7a C:/Appz/Freescale/CW MCU v10.6/MCU/ARM_GCC_Support/ewl/lib/armv6-m\libm.a(e_rem_pio2f.o)
 .comment       0x00000000       0x7a C:/Appz/Freescale/CW MCU v10.6/MCU/ARM_GCC_Support/ewl/lib/armv6-m\libm.a(e_sqrtf.o)
 .comment       0x00000000       0x7a C:/Appz/Freescale/CW MCU v10.6/MCU/ARM_GCC_Support/ewl/lib/armv6-m\libm.a(k_cosf.o)
 .comment       0x00000000       0x7a C:/Appz/Freescale/CW MCU v10.6/MCU/ARM_GCC_Support/ewl/lib/armv6-m\libm.a(k_rem_pio2f.o)
 .comment       0x00000000       0x7a C:/Appz/Freescale/CW MCU v10.6/MCU/ARM_GCC_Support/ewl/lib/armv6-m\libm.a(k_sinf.o)
 .comment       0x00000000       0x7a C:/Appz/Freescale/CW MCU v10.6/MCU/ARM_GCC_Support/ewl/lib/armv6-m\libm.a(s_floorf.o)
 .comment       0x00000000       0x7a C:/Appz/Freescale/CW MCU v10.6/MCU/ARM_GCC_Support/ewl/lib/armv6-m\libm.a(s_scalbnf.o)
 .comment       0x00000000       0x7a C:/Appz/Freescale/CW MCU v10.6/MCU/ARM_GCC_Support/ewl/lib/armv6-m\libm.a(scalbn.o)
 .comment       0x00000000       0x7a C:/Appz/Freescale/CW MCU v10.6/MCU/ARM_GCC_Support/ewl/lib/armv6-m\libm.a(w_sqrt.o)
 .comment       0x00000000       0x7a C:/Appz/Freescale/CW MCU v10.6/MCU/ARM_GCC_Support/ewl/lib/armv6-m\libm.a(e_sqrt.o)
 .comment       0x00000000       0x7a C:/Appz/Freescale/CW MCU v10.6/MCU/ARM_GCC_Support/ewl/lib/armv6-m\libm.a(s_ldexp.o)
 .comment       0x00000000       0x7a C:/Appz/Freescale/CW MCU v10.6/MCU/ARM_GCC_Support/ewl/lib/armv6-m\librt.a(gcc_ctor_dtor.o)
 .comment       0x00000000       0x7a C:/Appz/Freescale/CW MCU v10.6/MCU/ARM_GCC_Support/ewl/lib/armv6-m\librt.a(ROMCopy.o)
 .comment       0x00000000       0x7a C:/Appz/Freescale/CW MCU v10.6/MCU/ARM_GCC_Support/ewl/lib/armv6-m\librt.a(__arm_eabi_init.o)
 .comment       0x00000000       0x7a C:/Appz/Freescale/CW MCU v10.6/MCU/ARM_GCC_Support/ewl/lib/armv6-m\librt.a(setjmp.o)
 .comment       0x00000000       0x7a C:/Appz/Freescale/CW MCU v10.6/MCU/ARM_GCC_Support/ewl/lib/armv6-m\libhosted.a(semihosted_console_io.o)
 .comment       0x00000000       0x7a C:/Appz/Freescale/CW MCU v10.6/MCU/ARM_GCC_Support/ewl/lib/armv6-m\libhosted.a(semihosted_file_io.o)

.debug_loc      0x00000000    0x12315
 .debug_loc     0x00000000      0x293 ./Generated_Code/UART.o
 .debug_loc     0x00000293       0x8e ./Generated_Code/TestPin_MagCal_Time.o
 .debug_loc     0x00000321       0x8e ./Generated_Code/TestPin_KF_Time.o
 .debug_loc     0x000003af      0x1dd ./Generated_Code/TU1.o
 .debug_loc     0x0000058c      0x18b ./Generated_Code/SystemTimer1.o
 .debug_loc     0x00000717      0x1f3 ./Generated_Code/PWM1.o
 .debug_loc     0x0000090a       0xf8 ./Generated_Code/PE_LDD.o
 .debug_loc     0x00000a02       0xf7 ./Generated_Code/MQX1.o
 .debug_loc     0x00000af9       0xa1 ./Generated_Code/LED_RED.o
 .debug_loc     0x00000b9a       0xa1 ./Generated_Code/LED_GREEN.o
 .debug_loc     0x00000c3b      0x51e ./Generated_Code/I2C.o
 .debug_loc     0x00001159       0xc6 ./Generated_Code/FTM.o
 .debug_loc     0x0000121f       0x60 ./Generated_Code/Cpu.o
 .debug_loc     0x0000127f       0xfa ./Generated_Code/BitIoLdd6.o
 .debug_loc     0x00001379       0xfa ./Generated_Code/BitIoLdd5.o
 .debug_loc     0x00001473       0xfa ./Generated_Code/BitIoLdd4.o
 .debug_loc     0x0000156d       0xfa ./Generated_Code/BitIoLdd3.o
 .debug_loc     0x00001667       0xfa ./Generated_Code/BitIoLdd2.o
 .debug_loc     0x00001761      0x146 ./Generated_Code/BitIoLdd1.o
 .debug_loc     0x000018a7      0xd81 ./MQXLITE/kernel/time_ticks.o
 .debug_loc     0x00002628     0x2e7d ./MQXLITE/kernel/task.o
 .debug_loc     0x000054a5      0x1cd ./MQXLITE/kernel/mqxlite.o
 .debug_loc     0x00005672      0x189 ./MQXLITE/kernel/mqx_utils.o
 .debug_loc     0x000057fb      0xc25 ./MQXLITE/kernel/lwsem.o
 .debug_loc     0x00006420      0xabe ./MQXLITE/kernel/lwevent.o
 .debug_loc     0x00006ede      0x7a3 ./MQXLITE/kernel/int.o
 .debug_loc     0x00007681       0x3f ./MQXLITE/kernel/idletask.o
 .debug_loc     0x000076c0       0x9d ./MQXLITE/psp/cortex_m/stack_bu.o
 .debug_loc     0x0000775d      0x119 ./MQXLITE/psp/cortex_m/sc_irdyq.o
 .debug_loc     0x00007876       0x8e ./MQXLITE/psp/cortex_m/psp_tinm.o
 .debug_loc     0x00007904       0x59 ./MQXLITE/psp/cortex_m/psp_tiad.o
 .debug_loc     0x0000795d       0x6f ./MQXLITE/psp/cortex_m/psp_iinit.o
 .debug_loc     0x000079cc      0x100 ./MQXLITE/psp/cortex_m/mem_zero.o
 .debug_loc     0x00007acc       0x3d ./MQXLITE/psp/cortex_m/int_vtab.o
 .debug_loc     0x00007b09       0x34 ./MQXLITE/psp/cortex_m/int_inst.o
 .debug_loc     0x00007b3d       0x33 ./Project_Settings/Startup_Code/__arm_end.o
 .debug_loc     0x00007b70       0xe8 ./Sources/user_tasks.o
 .debug_loc     0x00007c58      0x1d7 ./Sources/tasks_func.o
 .debug_loc     0x00007e2f       0xd8 ./Sources/mqx_tasks.o
 .debug_loc     0x00007f07       0x20 ./Sources/main.o
 .debug_loc     0x00007f27     0x31ff ./Sources/FSL_utils.o
 .debug_loc     0x0000b126       0x8c ./Sources/Events.o
 .debug_loc     0x0000b1b2       0x3f C:/Appz/Freescale/CW MCU v10.6/MCU/ARM_GCC_Support/ewl/lib/armv6-m\libc.a(sprintf.o)
 .debug_loc     0x0000b1f1      0x105 C:/Appz/Freescale/CW MCU v10.6/MCU/ARM_GCC_Support/ewl/lib/armv6-m\libc.a(vsnprintf.o)
 .debug_loc     0x0000b2f6       0x3e C:/Appz/Freescale/CW MCU v10.6/MCU/ARM_GCC_Support/ewl/lib/armv6-m\libc.a(exit.o)
 .debug_loc     0x0000b334       0x59 C:/Appz/Freescale/CW MCU v10.6/MCU/ARM_GCC_Support/ewl/lib/armv6-m\libc.a(memcpy.o)
 .debug_loc     0x0000b38d       0x6f C:/Appz/Freescale/CW MCU v10.6/MCU/ARM_GCC_Support/ewl/lib/armv6-m\libc.a(memset.o)
 .debug_loc     0x0000b3fc     0x15bd C:/Appz/Freescale/CW MCU v10.6/MCU/ARM_GCC_Support/ewl/lib/armv6-m\libc.a(printformat_fp.o)
 .debug_loc     0x0000c9b9      0xa49 C:/Appz/Freescale/CW MCU v10.6/MCU/ARM_GCC_Support/ewl/lib/armv6-m\libc.a(scanformat_fp.o)
 .debug_loc     0x0000d402      0x30d C:/Appz/Freescale/CW MCU v10.6/MCU/ARM_GCC_Support/ewl/lib/armv6-m\libc.a(ctype_aeabi.o)
 .debug_loc     0x0000d70f      0x910 C:/Appz/Freescale/CW MCU v10.6/MCU/ARM_GCC_Support/ewl/lib/armv6-m\libc.a(__strtold.o)
 .debug_loc     0x0000e01f      0x305 C:/Appz/Freescale/CW MCU v10.6/MCU/ARM_GCC_Support/ewl/lib/armv6-m\libc.a(__strtoul.o)
 .debug_loc     0x0000e324      0x14a C:/Appz/Freescale/CW MCU v10.6/MCU/ARM_GCC_Support/ewl/lib/armv6-m\libc.a(__filll_mem.o)
 .debug_loc     0x0000e46e       0x77 C:/Appz/Freescale/CW MCU v10.6/MCU/ARM_GCC_Support/ewl/lib/armv6-m\libc.a(memchr.o)
 .debug_loc     0x0000e4e5       0xaf C:/Appz/Freescale/CW MCU v10.6/MCU/ARM_GCC_Support/ewl/lib/armv6-m\libc.a(strchr.o)
 .debug_loc     0x0000e594       0x20 C:/Appz/Freescale/CW MCU v10.6/MCU/ARM_GCC_Support/ewl/lib/armv6-m\libc.a(strcpy.o)
 .debug_loc     0x0000e5b4       0x33 C:/Appz/Freescale/CW MCU v10.6/MCU/ARM_GCC_Support/ewl/lib/armv6-m\libc.a(strlen.o)
 .debug_loc     0x0000e5e7      0x599 C:/Appz/Freescale/CW MCU v10.6/MCU/ARM_GCC_Support/ewl/lib/armv6-m\libm.a(ansi_fp.o)
 .debug_loc     0x0000eb80      0x2d7 C:/Appz/Freescale/CW MCU v10.6/MCU/ARM_GCC_Support/ewl/lib/armv6-m\libm.a(math_api.o)
 .debug_loc     0x0000ee57       0xc1 C:/Appz/Freescale/CW MCU v10.6/MCU/ARM_GCC_Support/ewl/lib/armv6-m\libm.a(s_frexp.o)
 .debug_loc     0x0000ef18       0xda C:/Appz/Freescale/CW MCU v10.6/MCU/ARM_GCC_Support/ewl/lib/armv6-m\libm.a(s_sinf.o)
 .debug_loc     0x0000eff2       0x33 C:/Appz/Freescale/CW MCU v10.6/MCU/ARM_GCC_Support/ewl/lib/armv6-m\libm.a(w_acosf.o)
 .debug_loc     0x0000f025       0x50 C:/Appz/Freescale/CW MCU v10.6/MCU/ARM_GCC_Support/ewl/lib/armv6-m\libm.a(w_pow.o)
 .debug_loc     0x0000f075       0x46 C:/Appz/Freescale/CW MCU v10.6/MCU/ARM_GCC_Support/ewl/lib/armv6-m\libm.a(w_powf.o)
 .debug_loc     0x0000f0bb       0x33 C:/Appz/Freescale/CW MCU v10.6/MCU/ARM_GCC_Support/ewl/lib/armv6-m\libm.a(w_sqrtf.o)
 .debug_loc     0x0000f0ee      0x18c C:/Appz/Freescale/CW MCU v10.6/MCU/ARM_GCC_Support/ewl/lib/armv6-m\libm.a(e_acosf.o)
 .debug_loc     0x0000f27a      0x962 C:/Appz/Freescale/CW MCU v10.6/MCU/ARM_GCC_Support/ewl/lib/armv6-m\libm.a(e_pow.o)
 .debug_loc     0x0000fbdc      0x782 C:/Appz/Freescale/CW MCU v10.6/MCU/ARM_GCC_Support/ewl/lib/armv6-m\libm.a(e_powf.o)
 .debug_loc     0x0001035e      0x3ea C:/Appz/Freescale/CW MCU v10.6/MCU/ARM_GCC_Support/ewl/lib/armv6-m\libm.a(e_rem_pio2f.o)
 .debug_loc     0x00010748      0x126 C:/Appz/Freescale/CW MCU v10.6/MCU/ARM_GCC_Support/ewl/lib/armv6-m\libm.a(e_sqrtf.o)
 .debug_loc     0x0001086e      0x13d C:/Appz/Freescale/CW MCU v10.6/MCU/ARM_GCC_Support/ewl/lib/armv6-m\libm.a(k_cosf.o)
 .debug_loc     0x000109ab      0x654 C:/Appz/Freescale/CW MCU v10.6/MCU/ARM_GCC_Support/ewl/lib/armv6-m\libm.a(k_rem_pio2f.o)
 .debug_loc     0x00010fff       0xf7 C:/Appz/Freescale/CW MCU v10.6/MCU/ARM_GCC_Support/ewl/lib/armv6-m\libm.a(k_sinf.o)
 .debug_loc     0x000110f6       0xb9 C:/Appz/Freescale/CW MCU v10.6/MCU/ARM_GCC_Support/ewl/lib/armv6-m\libm.a(s_floorf.o)
 .debug_loc     0x000111af      0x103 C:/Appz/Freescale/CW MCU v10.6/MCU/ARM_GCC_Support/ewl/lib/armv6-m\libm.a(s_scalbnf.o)
 .debug_loc     0x000112b2       0x6e C:/Appz/Freescale/CW MCU v10.6/MCU/ARM_GCC_Support/ewl/lib/armv6-m\libm.a(scalbn.o)
 .debug_loc     0x00011320       0x38 C:/Appz/Freescale/CW MCU v10.6/MCU/ARM_GCC_Support/ewl/lib/armv6-m\libm.a(w_sqrt.o)
 .debug_loc     0x00011358      0x220 C:/Appz/Freescale/CW MCU v10.6/MCU/ARM_GCC_Support/ewl/lib/armv6-m\libm.a(e_sqrt.o)
 .debug_loc     0x00011578      0x16b C:/Appz/Freescale/CW MCU v10.6/MCU/ARM_GCC_Support/ewl/lib/armv6-m\libm.a(s_ldexp.o)
 .debug_loc     0x000116e3       0x9d C:/Appz/Freescale/CW MCU v10.6/MCU/ARM_GCC_Support/ewl/lib/armv6-m\librt.a(gcc_ctor_dtor.o)
 .debug_loc     0x00011780       0xd9 C:/Appz/Freescale/CW MCU v10.6/MCU/ARM_GCC_Support/ewl/lib/armv6-m\librt.a(ROMCopy.o)
 .debug_loc     0x00011859      0x197 C:/Appz/Freescale/CW MCU v10.6/MCU/ARM_GCC_Support/ewl/lib/armv6-m\librt.a(__arm_eabi_init.o)
 .debug_loc     0x000119f0       0x13 C:/Appz/Freescale/CW MCU v10.6/MCU/ARM_GCC_Support/ewl/lib/armv6-m\librt.a(setjmp.o)
 .debug_loc     0x00011a03      0x15d C:/Appz/Freescale/CW MCU v10.6/MCU/ARM_GCC_Support/ewl/lib/armv6-m\libhosted.a(semihosted_console_io.o)
 .debug_loc     0x00011b60      0x7b5 C:/Appz/Freescale/CW MCU v10.6/MCU/ARM_GCC_Support/ewl/lib/armv6-m\libhosted.a(semihosted_file_io.o)

.debug_frame    0x00000000     0x3034
 .debug_frame   0x00000000       0x9c ./Generated_Code/UART.o
 .debug_frame   0x0000009c       0x68 ./Generated_Code/TestPin_MagCal_Time.o
 .debug_frame   0x00000104       0x68 ./Generated_Code/TestPin_KF_Time.o
 .debug_frame   0x0000016c       0x94 ./Generated_Code/TU1.o
 .debug_frame   0x00000200       0xcc ./Generated_Code/SystemTimer1.o
 .debug_frame   0x000002cc       0x64 ./Generated_Code/PWM1.o
 .debug_frame   0x00000330       0x60 ./Generated_Code/PE_LDD.o
 .debug_frame   0x00000390       0x5c ./Generated_Code/MQX1.o
 .debug_frame   0x000003ec       0x78 ./Generated_Code/LED_RED.o
 .debug_frame   0x00000464       0x78 ./Generated_Code/LED_GREEN.o
 .debug_frame   0x000004dc      0x124 ./Generated_Code/I2C.o
 .debug_frame   0x00000600       0x5c ./Generated_Code/FTM.o
 .debug_frame   0x0000065c       0x6c ./Generated_Code/Cpu.o
 .debug_frame   0x000006c8       0x88 ./Generated_Code/BitIoLdd6.o
 .debug_frame   0x00000750       0x88 ./Generated_Code/BitIoLdd5.o
 .debug_frame   0x000007d8       0x88 ./Generated_Code/BitIoLdd4.o
 .debug_frame   0x00000860       0x88 ./Generated_Code/BitIoLdd3.o
 .debug_frame   0x000008e8       0x88 ./Generated_Code/BitIoLdd2.o
 .debug_frame   0x00000970       0x98 ./Generated_Code/BitIoLdd1.o
 .debug_frame   0x00000a08      0x234 ./MQXLITE/kernel/time_ticks.o
 .debug_frame   0x00000c3c      0x4d8 ./MQXLITE/kernel/task.o
 .debug_frame   0x00001114       0x68 ./MQXLITE/kernel/mqxlite.o
 .debug_frame   0x0000117c       0xb4 ./MQXLITE/kernel/mqx_utils.o
 .debug_frame   0x00001230      0x18c ./MQXLITE/kernel/lwsem.o
 .debug_frame   0x000013bc      0x1b0 ./MQXLITE/kernel/lwevent.o
 .debug_frame   0x0000156c      0x180 ./MQXLITE/kernel/int.o
 .debug_frame   0x000016ec       0x28 ./MQXLITE/kernel/idletask.o
 .debug_frame   0x00001714       0x20 ./MQXLITE/psp/cortex_m/stack_de.o
 .debug_frame   0x00001734       0x30 ./MQXLITE/psp/cortex_m/stack_bu.o
 .debug_frame   0x00001764       0x50 ./MQXLITE/psp/cortex_m/sc_irdyq.o
 .debug_frame   0x000017b4       0x30 ./MQXLITE/psp/cortex_m/psp_tinm.o
 .debug_frame   0x000017e4       0x30 ./MQXLITE/psp/cortex_m/psp_tiad.o
 .debug_frame   0x00001814       0x28 ./MQXLITE/psp/cortex_m/psp_iinit.o
 .debug_frame   0x0000183c       0x2c ./MQXLITE/psp/cortex_m/mem_zero.o
 .debug_frame   0x00001868       0x30 ./MQXLITE/psp/cortex_m/int_vtab.o
 .debug_frame   0x00001898       0x28 ./MQXLITE/psp/cortex_m/int_inst.o
 .debug_frame   0x000018c0       0x30 ./Project_Settings/Startup_Code/__arm_start.o
 .debug_frame   0x000018f0       0x28 ./Project_Settings/Startup_Code/__arm_end.o
 .debug_frame   0x00001918       0x94 ./Sources/user_tasks.o
 .debug_frame   0x000019ac       0xf0 ./Sources/tasks_func.o
 .debug_frame   0x00001a9c       0x84 ./Sources/mqx_tasks.o
 .debug_frame   0x00001b20       0x28 ./Sources/main.o
 .debug_frame   0x00001b48      0x24c ./Sources/FSL_utils.o
 .debug_frame   0x00001d94       0xa4 ./Sources/Events.o
 .debug_frame   0x00001e38       0x2c C:/Appz/Freescale/CW MCU v10.6/MCU/ARM_GCC_Support/ewl/lib/armv6-m\libc.a(sprintf.o)
 .debug_frame   0x00001e64       0x4c C:/Appz/Freescale/CW MCU v10.6/MCU/ARM_GCC_Support/ewl/lib/armv6-m\libc.a(vsnprintf.o)
 .debug_frame   0x00001eb0       0x2c C:/Appz/Freescale/CW MCU v10.6/MCU/ARM_GCC_Support/ewl/lib/armv6-m\libc.a(exit.o)
 .debug_frame   0x00001edc       0x28 C:/Appz/Freescale/CW MCU v10.6/MCU/ARM_GCC_Support/ewl/lib/armv6-m\libc.a(memcpy.o)
 .debug_frame   0x00001f04       0x28 C:/Appz/Freescale/CW MCU v10.6/MCU/ARM_GCC_Support/ewl/lib/armv6-m\libc.a(memset.o)
 .debug_frame   0x00001f2c       0x54 C:/Appz/Freescale/CW MCU v10.6/MCU/ARM_GCC_Support/ewl/lib/armv6-m\libc.a(printformat_fp.o)
 .debug_frame   0x00001f80       0x34 C:/Appz/Freescale/CW MCU v10.6/MCU/ARM_GCC_Support/ewl/lib/armv6-m\libc.a(scanformat_fp.o)
 .debug_frame   0x00001fb4      0x158 C:/Appz/Freescale/CW MCU v10.6/MCU/ARM_GCC_Support/ewl/lib/armv6-m\libc.a(ctype_aeabi.o)
 .debug_frame   0x0000210c       0x84 C:/Appz/Freescale/CW MCU v10.6/MCU/ARM_GCC_Support/ewl/lib/armv6-m\libc.a(__strtold.o)
 .debug_frame   0x00002190       0x30 C:/Appz/Freescale/CW MCU v10.6/MCU/ARM_GCC_Support/ewl/lib/armv6-m\libc.a(__strtoul.o)
 .debug_frame   0x000021c0       0x2c C:/Appz/Freescale/CW MCU v10.6/MCU/ARM_GCC_Support/ewl/lib/armv6-m\libc.a(__filll_mem.o)
 .debug_frame   0x000021ec       0x28 C:/Appz/Freescale/CW MCU v10.6/MCU/ARM_GCC_Support/ewl/lib/armv6-m\libc.a(memchr.o)
 .debug_frame   0x00002214       0x28 C:/Appz/Freescale/CW MCU v10.6/MCU/ARM_GCC_Support/ewl/lib/armv6-m\libc.a(strchr.o)
 .debug_frame   0x0000223c       0x28 C:/Appz/Freescale/CW MCU v10.6/MCU/ARM_GCC_Support/ewl/lib/armv6-m\libc.a(strcpy.o)
 .debug_frame   0x00002264       0x28 C:/Appz/Freescale/CW MCU v10.6/MCU/ARM_GCC_Support/ewl/lib/armv6-m\libc.a(strlen.o)
 .debug_frame   0x0000228c       0x6c C:/Appz/Freescale/CW MCU v10.6/MCU/ARM_GCC_Support/ewl/lib/armv6-m\libm.a(ansi_fp.o)
 .debug_frame   0x000022f8       0xe0 C:/Appz/Freescale/CW MCU v10.6/MCU/ARM_GCC_Support/ewl/lib/armv6-m\libm.a(math_api.o)
 .debug_frame   0x000023d8       0x2c C:/Appz/Freescale/CW MCU v10.6/MCU/ARM_GCC_Support/ewl/lib/armv6-m\libm.a(s_frexp.o)
 .debug_frame   0x00002404       0x30 C:/Appz/Freescale/CW MCU v10.6/MCU/ARM_GCC_Support/ewl/lib/armv6-m\libm.a(s_sinf.o)
 .debug_frame   0x00002434       0x28 C:/Appz/Freescale/CW MCU v10.6/MCU/ARM_GCC_Support/ewl/lib/armv6-m\libm.a(w_acosf.o)
 .debug_frame   0x0000245c       0x28 C:/Appz/Freescale/CW MCU v10.6/MCU/ARM_GCC_Support/ewl/lib/armv6-m\libm.a(w_pow.o)
 .debug_frame   0x00002484       0x28 C:/Appz/Freescale/CW MCU v10.6/MCU/ARM_GCC_Support/ewl/lib/armv6-m\libm.a(w_powf.o)
 .debug_frame   0x000024ac       0x28 C:/Appz/Freescale/CW MCU v10.6/MCU/ARM_GCC_Support/ewl/lib/armv6-m\libm.a(w_sqrtf.o)
 .debug_frame   0x000024d4       0x30 C:/Appz/Freescale/CW MCU v10.6/MCU/ARM_GCC_Support/ewl/lib/armv6-m\libm.a(e_acosf.o)
 .debug_frame   0x00002504       0x34 C:/Appz/Freescale/CW MCU v10.6/MCU/ARM_GCC_Support/ewl/lib/armv6-m\libm.a(e_pow.o)
 .debug_frame   0x00002538       0x30 C:/Appz/Freescale/CW MCU v10.6/MCU/ARM_GCC_Support/ewl/lib/armv6-m\libm.a(e_powf.o)
 .debug_frame   0x00002568       0x30 C:/Appz/Freescale/CW MCU v10.6/MCU/ARM_GCC_Support/ewl/lib/armv6-m\libm.a(e_rem_pio2f.o)
 .debug_frame   0x00002598       0x2c C:/Appz/Freescale/CW MCU v10.6/MCU/ARM_GCC_Support/ewl/lib/armv6-m\libm.a(e_sqrtf.o)
 .debug_frame   0x000025c4       0x30 C:/Appz/Freescale/CW MCU v10.6/MCU/ARM_GCC_Support/ewl/lib/armv6-m\libm.a(k_cosf.o)
 .debug_frame   0x000025f4       0x34 C:/Appz/Freescale/CW MCU v10.6/MCU/ARM_GCC_Support/ewl/lib/armv6-m\libm.a(k_rem_pio2f.o)
 .debug_frame   0x00002628       0x34 C:/Appz/Freescale/CW MCU v10.6/MCU/ARM_GCC_Support/ewl/lib/armv6-m\libm.a(k_sinf.o)
 .debug_frame   0x0000265c       0x2c C:/Appz/Freescale/CW MCU v10.6/MCU/ARM_GCC_Support/ewl/lib/armv6-m\libm.a(s_floorf.o)
 .debug_frame   0x00002688       0x2c C:/Appz/Freescale/CW MCU v10.6/MCU/ARM_GCC_Support/ewl/lib/armv6-m\libm.a(s_scalbnf.o)
 .debug_frame   0x000026b4       0x2c C:/Appz/Freescale/CW MCU v10.6/MCU/ARM_GCC_Support/ewl/lib/armv6-m\libm.a(scalbn.o)
 .debug_frame   0x000026e0       0x28 C:/Appz/Freescale/CW MCU v10.6/MCU/ARM_GCC_Support/ewl/lib/armv6-m\libm.a(w_sqrt.o)
 .debug_frame   0x00002708       0x30 C:/Appz/Freescale/CW MCU v10.6/MCU/ARM_GCC_Support/ewl/lib/armv6-m\libm.a(e_sqrt.o)
 .debug_frame   0x00002738       0x30 C:/Appz/Freescale/CW MCU v10.6/MCU/ARM_GCC_Support/ewl/lib/armv6-m\libm.a(s_ldexp.o)
 .debug_frame   0x00002768       0x20 c:/appz/freescale/cw mcu v10.6/cross_tools/arm-none-eabi-gcc-4_7_3/bin/../lib/gcc/arm-none-eabi/4.7.3/armv6-m\libgcc.a(_udivsi3.o)
 .debug_frame   0x00002788       0x20 c:/appz/freescale/cw mcu v10.6/cross_tools/arm-none-eabi-gcc-4_7_3/bin/../lib/gcc/arm-none-eabi/4.7.3/armv6-m\libgcc.a(_divsi3.o)
 .debug_frame   0x000027a8       0x30 c:/appz/freescale/cw mcu v10.6/cross_tools/arm-none-eabi-gcc-4_7_3/bin/../lib/gcc/arm-none-eabi/4.7.3/armv6-m\libgcc.a(addsf3.o)
 .debug_frame   0x000027d8       0x3c c:/appz/freescale/cw mcu v10.6/cross_tools/arm-none-eabi-gcc-4_7_3/bin/../lib/gcc/arm-none-eabi/4.7.3/armv6-m\libgcc.a(divsf3.o)
 .debug_frame   0x00002814       0x2c c:/appz/freescale/cw mcu v10.6/cross_tools/arm-none-eabi-gcc-4_7_3/bin/../lib/gcc/arm-none-eabi/4.7.3/armv6-m\libgcc.a(eqsf2.o)
 .debug_frame   0x00002840       0x30 c:/appz/freescale/cw mcu v10.6/cross_tools/arm-none-eabi-gcc-4_7_3/bin/../lib/gcc/arm-none-eabi/4.7.3/armv6-m\libgcc.a(gesf2.o)
 .debug_frame   0x00002870       0x30 c:/appz/freescale/cw mcu v10.6/cross_tools/arm-none-eabi-gcc-4_7_3/bin/../lib/gcc/arm-none-eabi/4.7.3/armv6-m\libgcc.a(lesf2.o)
 .debug_frame   0x000028a0       0x3c c:/appz/freescale/cw mcu v10.6/cross_tools/arm-none-eabi-gcc-4_7_3/bin/../lib/gcc/arm-none-eabi/4.7.3/armv6-m\libgcc.a(mulsf3.o)
 .debug_frame   0x000028dc       0x30 c:/appz/freescale/cw mcu v10.6/cross_tools/arm-none-eabi-gcc-4_7_3/bin/../lib/gcc/arm-none-eabi/4.7.3/armv6-m\libgcc.a(subsf3.o)
 .debug_frame   0x0000290c       0x28 c:/appz/freescale/cw mcu v10.6/cross_tools/arm-none-eabi-gcc-4_7_3/bin/../lib/gcc/arm-none-eabi/4.7.3/armv6-m\libgcc.a(fixsfsi.o)
 .debug_frame   0x00002934       0x2c c:/appz/freescale/cw mcu v10.6/cross_tools/arm-none-eabi-gcc-4_7_3/bin/../lib/gcc/arm-none-eabi/4.7.3/armv6-m\libgcc.a(floatsisf.o)
 .debug_frame   0x00002960       0x3c c:/appz/freescale/cw mcu v10.6/cross_tools/arm-none-eabi-gcc-4_7_3/bin/../lib/gcc/arm-none-eabi/4.7.3/armv6-m\libgcc.a(adddf3.o)
 .debug_frame   0x0000299c       0x3c c:/appz/freescale/cw mcu v10.6/cross_tools/arm-none-eabi-gcc-4_7_3/bin/../lib/gcc/arm-none-eabi/4.7.3/armv6-m\libgcc.a(divdf3.o)
 .debug_frame   0x000029d8       0x34 c:/appz/freescale/cw mcu v10.6/cross_tools/arm-none-eabi-gcc-4_7_3/bin/../lib/gcc/arm-none-eabi/4.7.3/armv6-m\libgcc.a(eqdf2.o)
 .debug_frame   0x00002a0c       0x38 c:/appz/freescale/cw mcu v10.6/cross_tools/arm-none-eabi-gcc-4_7_3/bin/../lib/gcc/arm-none-eabi/4.7.3/armv6-m\libgcc.a(gedf2.o)
 .debug_frame   0x00002a44       0x38 c:/appz/freescale/cw mcu v10.6/cross_tools/arm-none-eabi-gcc-4_7_3/bin/../lib/gcc/arm-none-eabi/4.7.3/armv6-m\libgcc.a(ledf2.o)
 .debug_frame   0x00002a7c       0x3c c:/appz/freescale/cw mcu v10.6/cross_tools/arm-none-eabi-gcc-4_7_3/bin/../lib/gcc/arm-none-eabi/4.7.3/armv6-m\libgcc.a(muldf3.o)
 .debug_frame   0x00002ab8       0x38 c:/appz/freescale/cw mcu v10.6/cross_tools/arm-none-eabi-gcc-4_7_3/bin/../lib/gcc/arm-none-eabi/4.7.3/armv6-m\libgcc.a(subdf3.o)
 .debug_frame   0x00002af0       0x2c c:/appz/freescale/cw mcu v10.6/cross_tools/arm-none-eabi-gcc-4_7_3/bin/../lib/gcc/arm-none-eabi/4.7.3/armv6-m\libgcc.a(fixdfsi.o)
 .debug_frame   0x00002b1c       0x30 c:/appz/freescale/cw mcu v10.6/cross_tools/arm-none-eabi-gcc-4_7_3/bin/../lib/gcc/arm-none-eabi/4.7.3/armv6-m\libgcc.a(floatsidf.o)
 .debug_frame   0x00002b4c       0x2c c:/appz/freescale/cw mcu v10.6/cross_tools/arm-none-eabi-gcc-4_7_3/bin/../lib/gcc/arm-none-eabi/4.7.3/armv6-m\libgcc.a(extendsfdf2.o)
 .debug_frame   0x00002b78       0x30 c:/appz/freescale/cw mcu v10.6/cross_tools/arm-none-eabi-gcc-4_7_3/bin/../lib/gcc/arm-none-eabi/4.7.3/armv6-m\libgcc.a(truncdfsf2.o)
 .debug_frame   0x00002ba8       0x40 C:/Appz/Freescale/CW MCU v10.6/MCU/ARM_GCC_Support/ewl/lib/armv6-m\librt.a(gcc_ctor_dtor.o)
 .debug_frame   0x00002be8       0x54 C:/Appz/Freescale/CW MCU v10.6/MCU/ARM_GCC_Support/ewl/lib/armv6-m\librt.a(ROMCopy.o)
 .debug_frame   0x00002c3c       0xbc C:/Appz/Freescale/CW MCU v10.6/MCU/ARM_GCC_Support/ewl/lib/armv6-m\librt.a(__arm_eabi_init.o)
 .debug_frame   0x00002cf8       0x30 C:/Appz/Freescale/CW MCU v10.6/MCU/ARM_GCC_Support/ewl/lib/armv6-m\librt.a(setjmp.o)
 .debug_frame   0x00002d28       0x98 C:/Appz/Freescale/CW MCU v10.6/MCU/ARM_GCC_Support/ewl/lib/armv6-m\libhosted.a(semihosted_console_io.o)
 .debug_frame   0x00002dc0      0x274 C:/Appz/Freescale/CW MCU v10.6/MCU/ARM_GCC_Support/ewl/lib/armv6-m\libhosted.a(semihosted_file_io.o)
